(dp0
V\u0433\u043e\u043b\u043e\u0432\u043e\u0442\u044f\u043f\u0441\u0442\u0432\u043e
p1
(dp2
V\u0441\u043e
p3
(dp4
V\u0432\u0437\u043b\u043e\u043c
p5
(dp6
S'__id__'
p7
I460
ssssV\u0433\u043b\u0443\u0431\u043e\u043a\u043e\u0443\u0432\u0430\u0436\u0430\u0435\u043c\u044b\u0439
p8
(dp9
V\u0432\u0430\u0433\u043e\u043d\u043e\u0443\u0432\u0430\u0436\u0430\u0442\u044c
p10
(dp11
V\u0432\u0430\u0433\u043e\u043d\u043e\u0443\u0432\u0430\u0436\u0430\u0435\u043c\u044b\u0439
p12
(dp13
V\u0433\u043b\u0443\u0431\u043e\u043a\u043e\u0443\u0432\u0430\u0436\u0430\u0442\u044c
p14
(dp15
g7
I78
sssssV\u0435\u0434\u0438\u043d\u0438\u0446\u0430
p16
(dp17
V\u0432\u0437\u0434\u043e\u0440
p18
(dp19
V\u0435\u0434\u0438\u043d\u0438\u0446\u0430
p20
(dp21
V\u043d\u043e\u043b\u044c
p22
(dp23
g7
I106
sssssV\u0440\u0430\u0441\u043a\u043e\u043b
p24
(dp25
V\u0432
p26
(dp27
V\u043d\u0438\u0433\u0438\u043b\u0438\u0441\u0442
p28
(dp29
g7
I444
ssssV\u0440\u0430\u0437\u043e\u0440\u044f\u0442\u044c
p30
(dp31
V\u0438
p32
(dp33
V\u043d\u0435
p34
(dp35
V\u043f\u043e\u0442\u0435\u0440\u043f\u0435\u0442\u044c
p36
(dp37
g7
I262
sssssV\u043d\u0430\u0434\u043e
p38
(dp39
V\u0431\u044b
p40
(dp41
V\u0434\u043e\u0440\u0443\u0433\u0430\u0442\u044c\u0441\u044f
p42
(dp43
g7
I494
sssV\u0436\u0438\u0442\u044c
p44
(dp45
V\u043d\u0430\u0434\u043e
p46
(dp47
V\u0436\u0438\u0442\u044c
p48
(dp49
g7
I194
sssssV\u043d\u0435\u0431\u043e
p50
(dp51
V\u043a\u0440\u0443\u043f\u043d\u044b\u0439
p52
(dp53
V\u043e\u043f\u0442\u043e\u0432\u044b\u0439
p54
(dp55
V\u0441\u043c\u0435\u0440\u0442\u044c
p56
(dp57
g7
I206
sssssV\u0443\u0436\u0435\u043b\u044c
p58
(dp59
V\u0442\u043e\u0442
p60
(dp61
V\u0441\u0430\u043c\u044b\u0439
p62
(dp63
V\u0442\u0430\u0442\u044c\u044f\u043d\u0430
p64
(dp65
g7
I323
sssssV\u043a\u043d\u0438\u0433\u0430
p66
(dp67
V\u043e\u0433\u0440\u043e\u043c\u043d\u044b\u0439
p68
(dp69
V\u0441\u0438\u043b\u0430
p70
(dp71
g7
I483
ssssV\u0432\u0435\u043b\u0438\u043a\u0438\u0439
p72
(dp73
V\u043a\u043e\u043d\u0444\u0435\u0440\u0430\u043d\u0441\u044c\u0435
p74
(dp75
V\u0437\u0435\u043c\u043b\u044f
p76
(dp77
V\u0440\u0443\u0441\u0441\u043a\u0438\u0439
p78
(dp79
g7
I45
ssssV\u0431\u0430\u043b
p80
(dp81
V\u0443
p82
(dp83
V\u0441\u0430\u0442\u0430\u043d\u0430
p84
(dp85
g7
I44
ssssV\u0431\u0430\u0431\u0443\u0448\u043a\u0430
p86
(dp87
V\u0440\u043e\u0441\u0441\u0438\u044f
p88
(dp89
g7
I411
ssssV\u0440\u043e\u0441\u0441\u0438\u044f
p90
(dp91
V\u043c\u0430\u0442\u044c
p92
(dp93
V\u0440\u043e\u0441\u0441\u0438\u044f
p94
(dp95
V\u0441\u0443\u043a\u0430
p96
(dp97
g7
I267
ssssV\u0443\u0431\u0438\u0432\u0430\u0442\u044c
p98
(dp99
V\u043b\u0438\u0442\u0435\u0440\u0430\u0442\u0443\u0440\u0430
p100
(dp101
g7
I534
sssV\u0441\u0442\u0440\u0430\u043d\u0430
p102
(dp103
V\u043a\u0430\u0437\u0435\u043d\u043d\u044b\u0439
p104
(dp105
g7
I582
ssssV\u043c\u0430\u0440\u0448
p106
(dp107
V\u0432\u043f\u0435\u0440\u0435\u0434
p108
(dp109
V\u0442\u0440\u0443\u0431\u0430
p110
(dp111
V\u0437\u0432\u0430\u0442\u044c
p112
(dp113
g7
I166
sssssV\u0434\u0443\u0431\u0438\u043d\u0430
p114
(dp115
V\u043d\u0430\u0440\u043e\u0434\u043d\u044b\u0439
p116
(dp117
V\u0432\u043e\u0439\u043d\u0430
p118
(dp119
g7
I557
ssssV\u044d\u043c\u0430\u043d\u0441\u0438\u043f\u0435
p120
(dp121
V\u043f\u0435\u0440\u0435\u0434\u043e\u0432\u043e\u0439
p122
(dp123
V\u0436\u0435\u043d\u0449\u0438\u043d\u0430
p124
(dp125
g7
I562
ssssV\u0438
p126
(dp127
V\u0441\u043b\u0430\u0432\u043d\u043e
p128
(dp129
V\u043f\u0438\u0441\u0430\u0442\u044c
p130
(dp131
V\u043f\u0435\u0440\u0435\u0432\u043e\u0434\u0438\u0442\u044c
p132
(dp133
g7
I127
ssssV\u043e\u0433\u043d\u0435\u0434\u044b\u0448\u0430\u0449\u0438\u0439
p134
(dp135
V\u0441\u043b\u043e\u0432\u043e
p136
(dp137
g7
I587
sssV\u043f\u043e\u0440\u0430\u0441\u0442\u0430\u0442\u044c
p138
(dp139
V\u0442\u0440\u0430\u0432\u0430
p140
(dp141
V\u0437\u0430\u0431\u0432\u0435\u043d\u0438\u0435
p142
(dp143
g7
I124
ssssV\u0440\u0430\u0437\u043d\u044b\u0439
p144
(dp145
V\u043f\u0440\u043e\u0447\u0438\u0439
p146
(dp147
V\u0448\u0432\u0435\u0434\u043e\u0432
p148
(dp149
g7
I125
ssssV\u0437\u043b\u043e
p150
(dp151
V\u043d\u0430\u0441\u043a\u0443\u0447\u0438\u0432\u0430\u0442\u044c
p152
(dp153
V\u043e\u043d
p154
(dp155
g7
I120
ssssV\u0442\u0438\u0445\u043e
p156
(dp157
V\u0441\u043b\u0435\u0437\u0430
p158
(dp159
V\u043a\u0430\u043f\u0430\u0442\u044c
p160
(dp161
g7
I129
ssssV\u043d\u0435\u043c\u0435\u0434\u043b\u0435\u043d\u043d\u043e
p162
(dp163
V\u0432\u044b\u043f\u0438\u0432\u0430\u0442\u044c
p164
(dp165
g7
I445
sssV\u0443\u0441\u0442\u0440\u0438\u0446\u0430
p166
(dp167
V\u0438\u043c\u0435\u0442\u044c
p168
(dp169
V\u0432\u0440\u0430\u0433
p170
(dp171
g7
I130
ssssV\u043a\u043e\u0437\u0435\u043b
p172
(dp173
V\u043d\u0430
p174
(dp175
V\u0441\u0430\u043a\u0441
p176
(dp177
g7
I121
ssssV\u0442\u0432\u043e\u0440\u0447\u0435\u0441\u0442\u0432\u043e
p178
(dp179
V\u0438
p180
(dp181
V\u0447\u0443\u0434\u043e\u0442\u0432\u043e\u0440\u0441\u0442\u0432\u043e
p182
(dp183
g7
I128
ssssV\u0432\u0441\u044e\u0434\u0443
p184
(dp185
V\u043c\u0435\u0440\u043a\u0430\u043d\u0442\u0438\u043b\u044c\u043d\u044b\u0439
p186
(dp187
V\u0434\u0443\u0445
p188
(dp189
g7
I119
ssssV\u043e\u0442\u043a\u0443\u043f\u0449\u0438\u043a
p190
(dp191
V\u043a\u0430\u0431\u0430\u0447\u043d\u044b\u0439
p192
(dp193
V\u0433\u0435\u043d\u0438\u0439
p194
(dp195
g7
I123
ssssV\u043a\u0440\u0435\u0441\u0442\u044c\u044f\u043d\u043a\u0430
p196
(dp197
V\u043b\u044e\u0431\u0438\u0442\u044c
p198
(dp199
V\u0443\u043c\u0435\u0442\u044c
p200
(dp201
g7
I122
ssssV\u0440\u0435\u0437\u043a\u0438\u0439
p202
(dp203
V\u043e\u0445\u043b\u0430\u0436\u0434\u0430\u0442\u044c
p204
(dp205
V\u0443\u043c
p206
(dp207
g7
I126
sssssV\u043f\u043e\u0441\u043b\u0435\u0434\u043d\u0438\u0439
p208
(dp209
V\u0442\u0443\u0447\u0430
p210
(dp211
V\u0440\u0430\u0441\u0441\u0435\u0432\u0430\u0442\u044c
p212
(dp213
V\u0431\u0443\u0440\u044f
p214
(dp215
g7
I245
sssssV\u0433\u043e\u0440\u0435\u0442\u044c
p216
(dp217
V\u0432\u043e\u0441\u0442\u043e\u043a
p218
(dp219
V\u0437\u0430\u0440\u044f
p220
(dp221
V\u043d\u043e\u0432\u044b\u0439
p222
(dp223
g7
I81
ssssV\u0441\u0435\u0440\u0434\u0446\u0435
p224
(dp225
V\u0434\u0430\u043d\u043a\u043e
p226
(dp227
g7
I416
ssssV\u043f\u0440\u0438\u0431\u0435\u0433\u0430\u0442\u044c
p228
(dp229
V\u043a
p230
(dp231
V\u0444\u0438\u0433\u0443\u0440\u0430
p232
(dp233
V\u0443\u043c\u043e\u043b\u0447\u0430\u043d\u0438\u0435
p234
(dp235
g7
I253
sssssV\u043e\u0431\u043c\u0430\u043d
p236
(dp237
V\u043d\u0435\u043e\u043f\u044b\u0442\u043d\u044b\u0439
p238
(dp239
V\u0434\u0443\u0448\u0430
p240
(dp241
g7
I526
ssssV\u0447\u0442\u0435\u043d\u0438\u0435
p242
(dp243
V\u0432\u043e\u0442
p244
(dp245
V\u0445\u043e\u0440\u043e\u0448\u0438\u0439
p246
(dp247
V\u0443\u0447\u0435\u043d\u0438\u0435
p248
(dp249
g7
I345
sssssV\u0441\u044a\u0435\u0437\u0436\u0430\u043b\u0438\u0441\u044f
p250
(dp251
V\u043a
p252
(dp253
V\u0437\u0430\u0433\u0441
p254
(dp255
V\u0442\u0440\u0430\u043c\u0432\u0430\u0439
p256
(dp257
g7
I297
sssssV\u0437\u0430\u0447\u0438\u043d\u0430\u0442\u044c\u0441\u044f
p258
(dp259
V\u0440\u0443\u0441\u0441\u043a\u0438\u0439
p260
(dp261
V\u0431\u0440\u0435\u0434
p262
(dp263
g7
I379
ssssV\u043d\u0435\u0441\u043b\u044b\u0445\u0430\u043d\u043d\u044b\u0439
p264
(dp265
V\u043f\u0435\u0440\u0435\u043c\u0435\u043d\u0430
p266
(dp267
V\u043d\u0435\u0432\u0438\u0434\u0430\u043d\u043d\u044b\u0439
p268
(dp269
V\u043c\u044f\u0442\u0435\u0436
p270
(dp271
g7
I207
sssssV\u0447\u0435\u043b\u043e\u0432\u0435\u043a
p272
(dp273
V\u0441
p274
(dp275
V\u0431\u043e\u043b\u044c\u0448\u043e\u0439
p276
(dp277
V\u0431\u0443\u043a\u0432\u0430
p278
(dp279
g7
I340
ssssV\u0432
p280
(dp281
V\u043a\u043e\u0436\u0430\u043d\u044b\u0439
p282
(dp283
V\u043a\u0443\u0440\u0442\u043a\u0430
p284
(dp285
g7
I339
ssssV\u0432\u044b\u0448\u0435
p286
(dp287
V\u0441\u044b\u0442\u043e\u0441\u0442\u044c
p288
(dp289
g7
I413
sssV\u0436\u0435\u043b\u0430\u0442\u044c
p290
(dp291
V\u0441\u0442\u0440\u0430\u043d\u043d\u044b\u0439
p292
(dp293
g7
I552
sssV\u0447\u0435\u043b\u043e
p294
(dp295
V\u0432\u0435\u043a
p296
(dp297
g7
I374
ssssV\u0445\u043e\u0437\u044f\u0439\u043a\u0430
p298
(dp299
V\u043c\u0435\u0434\u043d\u044b\u0439
p300
(dp301
V\u0433\u043e\u0440\u0430
p302
(dp303
g7
I370
ssssV\u043f\u0440\u043e\u0449\u0430\u0439
p304
(dp305
V\u0445\u043e\u0437\u044f\u0439\u0441\u043a\u0438\u0439
p306
(dp307
V\u0433\u043e\u0440\u0448\u043e\u043a
p308
(dp309
g7
I475
sssV\u0441\u0432\u043e\u0431\u043e\u0434\u043d\u044b\u0439
p310
(dp311
V\u0441\u0442\u0438\u0445\u0438\u044f
p312
(dp313
g7
I507
ssssV\u0430\u043d\u043d\u0443\u0448\u043a\u0430
p314
(dp315
V\u0443\u0436\u0435
p316
(dp317
V\u0440\u0430\u0437\u043b\u0438\u0432\u0430\u0442\u044c
p318
(dp319
V\u043c\u0430\u0441\u043b\u043e
p320
(dp321
g7
I9
sssssV\u043a\u0442\u043e
p322
(dp323
V\u0432\u0435\u0441\u044c
p324
(dp325
V\u044d\u0442\u043e
p326
(dp327
V\u043c\u0435\u0448\u0430\u0442\u044c
p328
(dp329
g7
I152
ssssV\u0438
p330
(dp331
V\u043a\u043e\u0431\u044b\u043b\u0430
p332
(dp333
V\u043d\u0435\u0432\u0435\u0441\u0442\u0430
p334
(dp335
g7
I153
ssssV\u043e\u0440\u0433\u0430\u043d\u0438\u0437\u043e\u0432\u044b\u0432\u0430\u0442\u044c
p336
(dp337
V\u0432\u0441\u0442\u0430\u0432\u0430\u043d\u0438\u0435
p338
(dp339
g7
I549
ssssV\u0446\u0430\u0440\u044c
p340
(dp341
V\u0438\u0441\u043f\u0443\u0433\u0430\u0442\u044c\u0441\u044f
p342
(dp343
V\u0438\u0437\u0434\u0430\u0432\u0430\u0442\u044c
p344
(dp345
V\u043c\u0430\u043d\u0438\u0444\u0435\u0441\u0442
p346
(dp347
g7
I337
sssssV\u0432\u043e\u0441\u043a\u0440\u0435\u0448\u0430\u0442\u044c
p348
(dp349
V\u0441\u0432\u043e\u0435
p350
(dp351
V\u0434\u043e\u0436\u0438\u0432\u0430\u0442\u044c
p352
(dp353
V\u0445\u043e\u0442\u0435\u0442\u044c
p354
(dp355
g7
I57
sssssV\u0432\u043b\u0430\u0434\u044b\u043a\u0430
p356
(dp357
V\u043c\u0438\u0440
p358
(dp359
V\u0431\u044b\u0442\u044c
p360
(dp361
V\u0442\u0440\u0443\u0434
p362
(dp363
g7
I54
sssssV\u043c\u0443\u0441\u0438\u043a
p364
(dp365
V\u0433\u043e\u0442\u043e\u0432\u044b\u0439
p366
(dp367
V\u0433\u0443\u0441\u0438\u043a
p368
(dp369
g7
I459
ssssV\u0431\u043e\u0431\u044d\u043e\u0431\u0438
p370
(dp371
V\u043f\u0435\u0442\u044c\u0441\u044f
p372
(dp373
V\u0433\u0443\u0431\u0430
p374
(dp375
g7
I570
ssssV\u0437\u0430\u0433\u0440\u0430\u043d\u0438\u0446\u0430
p376
(dp377
V\u043c\u044b
p378
(dp379
V\u043f\u043e\u043c\u043e\u0433\u0430\u0442\u044c
p380
(dp381
g7
I454
ssssV\u0430\u0440\u0442\u0438\u043b\u043b\u0435\u0440\u0438\u044f
p382
(dp383
V\u0431\u0438\u0442\u044c
p384
(dp385
V\u043f\u043e
p386
(dp387
V\u0441\u0432\u043e\u0439
p388
(dp389
g7
I10
sssssV\u0433\u043b\u043e\u0442\u0430\u0442\u0435\u043b\u044c
p390
(dp391
V\u043f\u0443\u0441\u0442\u043e\u0442\u0430
p392
(dp393
V\u0447\u0438\u0442\u0430\u0442\u0435\u043b\u044c
p394
(dp395
V\u0433\u0430\u0437\u0435\u0442\u0430
p396
(dp397
g7
I77
sssssV\u0445\u043e\u043b\u043e\u043f
p398
(dp399
V\u043f\u0440\u0438\u043c\u0435\u0440\u043d\u044b\u0439
p400
(dp401
V\u044f\u043a\u043e\u0432
p402
(dp403
V\u0432\u0435\u0440\u043d\u044b\u0439
p404
(dp405
g7
I335
sssssV\u0441\u0430\u0448\u0430
p406
(dp407
V\u0441
p408
(dp409
V\u0443\u0440\u0430\u043b\u043c\u0430\u0448
p410
(dp411
g7
I545
ssssV\u043c\u043d\u043e\u0433\u043e
p412
(dp413
V\u043f\u0438\u0442\u044c
p414
(dp415
V\u043c\u0430\u043b\u043e
p416
(dp417
V\u0437\u0430\u043a\u0443\u0441\u044b\u0432\u0430\u0442\u044c
p418
(dp419
g7
I169
sssssV\u043c\u043e\u043b\u043e\u0442\u043a\u0430\u0441\u0442\u044b\u0439
p420
(dp421
V\u0441\u0435\u0440\u043f\u0430\u0441\u0442\u044b\u0439
p422
(dp423
V\u0441\u043e\u0432\u0435\u0442\u0441\u043a\u0438\u0439
p424
(dp425
V\u043f\u0430\u0441\u043f\u043e\u0440\u0442
p426
(dp427
g7
I173
sssssV\u043e\u0442\u044b\u0441\u043a\u0438\u0432\u0430\u0442\u044c\u0441\u044f
p428
(dp429
V\u0441\u043b\u0435\u0434
p430
(dp431
V\u0442\u0430\u0440\u0430\u0441\u043e\u0432
p432
(dp433
g7
I403
ssssV\u0441\u0443\u0434\u044c\u0431\u0430
p434
(dp435
V\u0435\u0432\u0433\u0435\u043d\u0438\u044f
p436
(dp437
V\u0445\u0440\u0430\u043d\u0438\u0442\u044c
p438
(dp439
g7
I523
ssssV\u0443
p440
(dp441
V\u0432\u0441\u0435
p442
(dp443
V\u0436\u0435\u043d\u0430
p444
(dp445
V\u0443\u0445\u043e\u0434\u0438\u0442\u044c
p446
(dp447
g7
I320
ssssV\u044f
p448
(dp449
V\u0437\u0430\u0432\u043e\u0434\u0438\u0442\u044c\u0441\u044f
p450
(dp451
V\u0430\u043d\u0433\u0435\u043b\u0435\u043d\u043e\u043a
p452
(dp453
g7
I321
sssssV\u043f\u0430\u0432\u0430
p454
(dp455
V\u0438\u0437\u043e\u0431\u0440\u0430\u0436\u0430\u0442\u044c
p456
(dp457
V\u0443\u043c\u0438\u0440\u0430\u0442\u044c
p458
(dp459
V\u043d\u0435\u0441\u0447\u0430\u0441\u0442\u043d\u044b\u0439
p460
(dp461
g7
I229
sssssV\u0447\u0438\u0441\u0442\u044b\u0439
p462
(dp463
V\u043f\u0440\u0435\u043b\u0435\u0441\u0442\u044c
p464
(dp465
V\u0447\u0438\u0441\u0442\u044b\u0439
p466
(dp467
V\u043e\u0431\u0440\u0430\u0437\u0435\u0446
p468
(dp469
g7
I343
sssssV\u043d\u0435\u0441\u0431\u044b\u0442\u043e\u0447\u043d\u044b\u0439
p470
(dp471
V\u0433\u0440\u0435\u0437\u0438\u0442\u044c\u0441\u044f
p472
(dp473
V\u043e\u043f\u044f\u0442\u044c
p474
(dp475
g7
I566
ssssV\u043f\u043e\u0434\u0443\u043c\u0430\u0442\u044c
p476
(dp477
V\u0431\u0438\u043d\u043e\u043c
p478
(dp479
V\u043d\u044c\u044e\u0442\u043e\u043d
p480
(dp481
g7
I390
ssssV\u0441\u043c\u0435\u0440\u0442\u044c
p482
(dp483
V\u043d\u0435
p484
(dp485
V\u0441\u043c\u0435\u0442\u044c
p486
(dp487
g7
I489
ssssV\u043f\u0430\u0445\u043d\u0443\u0442\u044c
p488
(dp489
V\u0441\u0435\u043d\u043e
p490
(dp491
V\u043d\u0430\u0434
p492
(dp493
V\u043b\u0443\u0433
p494
(dp495
g7
I230
sssssV\u0441\u043e\u044e\u0437
p496
(dp497
V\u043c\u0435\u0447
p498
(dp499
V\u0438
p500
(dp501
V\u043e\u0440\u0430\u0442\u044c
p502
(dp503
g7
I283
sssssV\u0448\u0430\u0433\u0430\u0442\u044c
p504
(dp505
V\u0447\u0435\u0440\u0435\u0437
p506
(dp507
V\u043c\u044b
p508
(dp509
g7
I375
ssssV\u0442\u0430\u043a
p510
(dp511
V\u043d\u0430\u0447\u0438\u043d\u0430\u0442\u044c
p512
(dp513
V\u0436\u0438\u0442\u044c
p514
(dp515
V\u0441\u0442\u0438\u0445
p516
(dp517
g7
I305
ssssV\u0436\u0438\u0442\u044c
p518
(dp519
V\u043f\u043e\u044d\u0442
p520
(dp521
g7
I378
sssV\u0438\u0434\u0442\u0438
p522
(dp523
V\u0434\u0435\u0440\u0436\u0430\u0432\u043d\u044b\u0439
p524
(dp525
V\u0448\u0430\u0433
p526
(dp527
g7
I304
ssssV\u0431\u044b\u0442\u044c
p528
(dp529
V\u0442\u0430\u043a
p530
(dp531
V\u0431\u044b\u0442\u044c
p532
(dp533
g7
I303
sssssV\u043a\u043e\u043d\u0444\u043b\u0438\u043a\u0442
p534
(dp535
V\u0445\u043e\u0440\u043e\u0448\u0438\u0439
p536
(dp537
V\u0441
p538
(dp539
V\u0445\u043e\u0440\u043e\u0448\u0438\u0439
p540
(dp541
g7
I147
sssssV\u043d\u0430\u0448
p542
(dp543
V\u0434\u0443\u0448\u0430
p544
(dp545
V\u0437\u043e\u043b\u043e\u0442\u043e\u0439
p546
(dp547
V\u0440\u043e\u0441\u0441\u044b\u043f\u044c
p548
(dp549
g7
I199
ssssV\u0432
p550
(dp551
V\u0433\u043e\u0440\u043e\u0434
p552
(dp553
V\u043c\u043d\u043e\u0433\u043e
p554
(dp555
g7
I198
ssssV\u0431\u0440\u0430\u0442
p556
(dp557
V\u0438\u0441\u0430\u0430\u043a\u0438\u0439
p558
(dp559
g7
I594
ssssV\u0432\u0435\u0434\u044c
p560
(dp561
V\u043f\u0440\u0435\u0434\u043c\u0435\u0442
p562
(dp563
V\u043f\u0440\u043e\u0441\u0442\u043e
p564
(dp565
V\u0444\u0443\u0444\u0443
p566
(dp567
g7
I43
sssssV\u0433\u0440\u0438\u0431\u043d\u043e\u0439
p568
(dp569
V\u043e\u0445\u043e\u0442\u0430
p570
(dp571
V\u0442\u0440\u0435\u0442\u0438\u0439
p572
(dp573
V\u043e\u0445\u043e\u0442\u0430
p574
(dp575
g7
I84
sssssV\u0447\u0435\u0442\u0432\u0435\u0440\u0442\u044b\u0439
p576
(dp577
V\u0441\u043e\u043d
p578
(dp579
V\u0432\u0435\u0440\u0430
p580
(dp581
V\u043f\u0430\u0432\u043b\u043e\u0432\u043d\u0430
p582
(dp583
g7
I342
sssssV\u0447\u0435\u0442\u044b\u0440\u0435
p584
(dp585
V\u0447\u0435\u0442\u0432\u0435\u0440\u0442\u044c
p586
(dp587
V\u043f\u0443\u0442\u044c
p588
(dp589
g7
I397
ssssV\u043f\u0440\u0438\u0432\u044b\u0447\u043a\u0430
p590
(dp591
V\u0434\u0443\u0448\u0430
p592
(dp593
V\u0434\u0435\u0440\u0436\u0430\u0432\u0430
p594
(dp595
g7
I522
ssssV\u043f\u0440\u043e\u0448\u0435\u0434\u0448\u0435\u0435
p596
(dp597
V\u0436\u0438\u0442\u0438\u0435
p598
(dp599
V\u043f\u043e\u0434\u043b\u044b\u0439
p600
(dp601
V\u0447\u0435\u0440\u0442\u0430
p602
(dp603
g7
I256
sssssV\u0438\u043c\u044f
p604
(dp605
V\u044d\u0442\u043e\u0442
p606
(dp607
V\u0442\u0435\u043c\u0430
p608
(dp609
V\u043b\u044e\u0431\u043e\u0432\u044c
p610
(dp611
g7
I134
sssssV\u0430\u0440\u0438\u0441\u0442\u043e\u043a\u0440\u0430\u0442\u0438\u0447\u0435\u0441\u043a\u0438
p612
(dp613
V\u0441\u0430\u043b\u043e\u043d\u043d\u044b\u0439
p614
(dp615
V\u043f\u043e\u044d\u0437\u0438\u044f
p616
(dp617
g7
I448
ssssV\u043c\u0430\u0439\u0441\u043a\u0438\u0439
p618
(dp619
V\u0434\u0435\u043d\u044c
p620
(dp621
V\u0438\u043c\u0435\u043d\u0438\u043d\u044b
p622
(dp623
V\u0441\u0435\u0440\u0434\u0446\u0435
p624
(dp625
g7
I165
sssssV\u0447\u0442\u043e
p626
(dp627
V\u0438\u043c\u044f
p628
(dp629
V\u0437\u0432\u0443\u043a
p630
(dp631
V\u043f\u0443\u0441\u0442\u043e\u0439
p632
(dp633
g7
I347
ssssV\u043c\u043e\u0439
p634
(dp635
V\u043d\u043e\u0433\u0430
p636
(dp637
V\u0445\u043e\u0442\u0435\u0442\u044c
p638
(dp639
g7
I348
ssssV\u0434\u0440\u0435\u043c\u0443\u0447\u0438\u0439
p640
(dp641
V\u043b\u0435\u0441
p642
(dp643
V\u043f\u0440\u0438\u0437\u0430\u0434\u0443\u043c\u044b\u0432\u0430\u0442\u044c\u0441\u044f
p644
(dp645
g7
I346
ssssV\u0441\u043b\u0435\u0437\u0430
p646
(dp647
V\u0436\u0435\u043d\u0441\u043a\u0438\u0439
p648
(dp649
V\u0432\u043e\u0434\u0430
p650
(dp651
g7
I349
ssssV\u0442\u044b
p652
(dp653
V\u043d\u0430\u0434\u043e\u0431\u043d\u043e
p654
(dp655
V\u0441\u0442\u0430\u0440\u043a\u043e
p656
(dp657
g7
I350
sssssV\u0437\u043e\u043b\u043e\u0442\u043e
p658
(dp659
V\u0437\u043e\u043b\u043e\u0442\u043e
p660
(dp661
V\u0441\u0435\u0440\u0434\u0446\u0435
p662
(dp663
V\u043d\u0430\u0440\u043e\u0434\u043d\u044b\u0439
p664
(dp665
g7
I118
sssssV\u043c\u0443\u0437\u0430
p666
(dp667
V\u0434\u0430\u043b\u044c\u043d\u0438\u0439
p668
(dp669
V\u0441\u0442\u0440\u0430\u043d\u0441\u0442\u0432\u0438\u0435
p670
(dp671
g7
I426
sssV\u043d\u0435
p672
(dp673
V\u043c\u043e\u043b\u0447\u0430\u0442\u044c
p674
(dp675
g7
I554
ssssV\u0447\u0443\u0434\u0430\u043a
p676
(dp677
V\u0443\u043a\u0440\u0430\u0448\u0430\u0442\u044c
p678
(dp679
V\u043c\u0438\u0440
p680
(dp681
g7
I415
ssssV\u043a\u0443\u0441\u0442\u0430\u0440\u044c
p682
(dp683
V\u043e\u0434\u0438\u043d\u043e\u0447\u043a\u0430
p684
(dp685
V\u0441
p686
(dp687
V\u043c\u043e\u0442\u043e\u0440
p688
(dp689
g7
I154
sssssV\u0442\u0443\u0442
p690
(dp691
V\u043a\u043e\u043d\u0435\u0446
p692
(dp693
V\u043f\u0435\u0440\u0441\u043f\u0435\u043a\u0442\u0438\u0432\u0430
p694
(dp695
g7
I385
ssssV\u0432\u0435\u043a
p696
(dp697
V\u0434\u0435\u0432\u044f\u0442\u043d\u0430\u0434\u0446\u0430\u0442\u044b\u0439
p698
(dp699
V\u0436\u0435\u043b\u0435\u0437\u043d\u044b\u0439
p700
(dp701
g7
I381
ssssV\u043a\u0430\u0432\u043a\u0430\u0437
p702
(dp703
V\u043f\u043e\u0434\u043e
p704
(dp705
V\u044f
p706
(dp707
g7
I508
ssssV\u0434\u0443\u0445
p708
(dp709
V\u043e\u0442\u0440\u0438\u0446\u0430\u043d\u0438\u0435
p710
(dp711
V\u0434\u0443\u0445
p712
(dp713
V\u0441\u043e\u043c\u043d\u0435\u043d\u0438\u0435
p714
(dp715
g7
I101
sssssV\u043c\u0430\u0442\u0443\u0448\u043a\u0430
p716
(dp717
V\u0433\u043e\u043b\u0443\u0431\u0443\u0448\u043a\u0430
p718
(dp719
V\u0441\u043e\u043b\u043d\u044b\u0448\u043a\u043e
p720
(dp721
V\u043c\u043e\u0439
p722
(dp723
g7
I167
sssssV\u0434\u043b\u0430\u043d\u044c
p724
(dp725
V\u043d\u0430\u0440\u043e\u0434\u043d\u044b\u0439
p726
(dp727
V\u043d\u0435\u043c\u0435\u0437\u0438\u0434\u0430
p728
(dp729
g7
I509
ssssV\u0431\u043e\u0440\u0435\u0446
p730
(dp731
V\u0437\u0430
p732
(dp733
V\u0438\u0434\u0435\u044f
p734
(dp735
g7
I453
ssssV\u0433\u0434\u0435
p736
(dp737
V\u0434\u0435\u043d\u044c\u0433\u0438
p738
(dp739
V\u0437\u0438\u043d\u0430
p740
(dp741
g7
I395
ssssV\u043f\u0440\u0438\u044e\u0442
p742
(dp743
V\u0443\u0431\u043e\u0433\u0438\u0439
p744
(dp745
V\u0447\u0443\u0445\u043e\u043d\u0435\u0446
p746
(dp747
g7
I516
ssssV\u043f\u043e\u0440\u0430
p748
(dp749
V\u043f\u0440\u0438\u0445\u043e\u0434\u0438\u0442\u044c
p750
(dp751
V\u043e\u043d\u0430
p752
(dp753
V\u0432\u043b\u044e\u0431\u043b\u044f\u0442\u044c\u0441\u044f
p754
(dp755
g7
I243
ssssV\u043f\u043e\u0440\u0430
p756
(dp757
V\u0440\u043e\u0433
p758
(dp759
V\u0442\u0440\u0443\u0431\u0438\u0442\u044c
p760
(dp761
g7
I242
sssssV\u043b\u0435\u043f\u0430\u0436
p762
(dp763
V\u0441\u0442\u0432\u043e\u043b
p764
(dp765
V\u0440\u043e\u043a\u043e\u0432\u043e\u0439
p766
(dp767
g7
I528
ssssV\u043d\u0430\u0432\u0430\u043b\u0438\u0432\u0430\u0442\u044c\u0441\u044f
p768
(dp769
V\u043a\u043b\u0430\u0441\u0441
p770
(dp771
V\u0433\u0435\u0433\u0435\u043c\u043e\u043d
p772
(dp773
g7
I471
ssssV\u043e
p774
(dp775
V\u043f\u0440\u0438\u044f\u0442\u043d\u044b\u0439
p776
(dp777
V\u043f\u0440\u0438\u044f\u0442\u0441\u0442\u0432\u043e
p778
(dp779
g7
I553
sssV\u0433\u0435\u043d\u0438\u0439
p780
(dp781
V\u0447\u0438\u0441\u0442\u044b\u0439
p782
(dp783
V\u043a\u0440\u0430\u0441\u043e\u0442\u0430
p784
(dp785
g7
I219
sssssV\u043f\u0440\u043e\u0434\u043e\u043b\u0436\u0430\u0442\u044c
p786
(dp787
V\u043d\u0430\u0448
p788
(dp789
V\u0438\u0433\u0440\u0430
p790
(dp791
g7
I394
ssssV\u0431\u044b\u0432\u0430\u0442\u044c
p792
(dp793
V\u0441\u0442\u0440\u0430\u043d\u043d\u044b\u0439
p794
(dp795
V\u0441\u0431\u043b\u0438\u0436\u0435\u043d\u0438\u0435
p796
(dp797
g7
I530
ssssV\u0431\u0430\u043b\u044c\u0437\u0430\u043a
p798
(dp799
V\u0432\u0435\u043d\u0447\u0430\u0442\u044c\u0441\u044f
p800
(dp801
V\u0432
p802
(dp803
V\u0431\u0435\u0440\u0434\u0438\u0447\u0435\u0432
p804
(dp805
g7
I13
sssssV\u043f\u043e\u0441\u0442\u0440\u0430\u0434\u0430\u0442\u044c
p806
(dp807
V\u043e\u0442\u0434\u0435\u043b\u044b\u0432\u0430\u0442\u044c\u0441\u044f
p808
(dp809
V\u043b\u0435\u0433\u043a\u0438\u0439
p810
(dp811
V\u0438\u0441\u043f\u0443\u0433
p812
(dp813
g7
I246
sssssV\u0443\u043d\u0442\u0435\u0440-\u043e\u0444\u0438\u0446\u0435\u0440\u0448\u0430
p814
(dp815
V\u0441\u0430\u043c
p816
(dp817
V\u0441\u0435\u0431\u044f
p818
(dp819
V\u0432\u044b\u0441\u0435\u043a\u0430\u0442\u044c
p820
(dp821
g7
I327
sssssV\u0442\u0430\u0440\u0430\u0442\u0438\u043d
p822
(dp823
V\u0442\u0430\u0440\u0430\u0442\u0438\u043d\u0430
p824
(dp825
Vtan
p826
(dp827
g7
I542
ssssV\u043f\u0440\u044f\u043c\u043e\u0439
p828
(dp829
V\u0434\u043e\u0440\u043e\u0433\u0430
p830
(dp831
V\u0431\u043e\u043b\u044c\u0448\u043e\u0439
p832
(dp833
V\u0434\u043e\u0440\u043e\u0433\u0430
p834
(dp835
g7
I257
ssssV\u043a\u043e\u0440\u043e\u0447\u0435
p836
(dp837
V\u043f\u0430\u0440\u0430\u0431\u043e\u043b\u0430
p838
(dp839
V\u043a\u0440\u0443\u0442\u043e\u0439
p840
(dp841
g7
I258
sssssV\u043f\u0440\u0435\u0434\u0441\u0435\u0434\u0430\u0442\u0435\u043b\u044c
p842
(dp843
V\u0437\u0435\u043c\u043d\u043e\u0439
p844
(dp845
V\u0448\u0430\u0440
p846
(dp847
g7
I571
ssssV\u043a\u043e\u043a\u0442\u0435\u0439\u043b\u044c
p848
(dp849
V\u0441\u043b\u0435\u0437\u0430
p850
(dp851
V\u043a\u043e\u043c\u0441\u043e\u043c\u043e\u043b\u043a\u0430
p852
(dp853
g7
I446
ssssV\u0434\u0438\u0430\u043b\u0435\u043a\u0442\u0438\u043a
p854
(dp855
V\u043e\u0431\u0430\u044f\u0442\u0435\u043b\u044c\u043d\u044b\u0439
p856
(dp857
V\u043b\u0438\u0431\u0435\u0440\u0430\u043b
p858
(dp859
V\u0438\u0434\u0435\u0430\u043b\u0438\u0441\u0442
p860
(dp861
g7
I90
sssssV\u0431\u0440\u0438\u0442\u0432\u0430
p862
(dp863
V\u0442\u0443\u043f\u043e\u0439
p864
(dp865
V\u0438\u0437\u0440\u0435\u0437\u0430\u0442\u044c\u0441\u044f
p866
(dp867
V\u0441\u043a\u043e\u0440\u043e
p868
(dp869
g7
I22
sssssV\u0446\u043a
p870
(dp871
V\u0438\u0433\u0440\u0430\u0442\u044c
p872
(dp873
V\u0447\u0435\u043b\u043e\u0432\u0435\u043a
p874
(dp875
g7
I373
ssssV\u043e\u0441\u0442\u043e\u0440\u043e\u0436\u043d\u043e\u0441\u0442\u044c
p876
(dp877
V\u043e\u0441\u0442\u043e\u0440\u043e\u0436\u043d\u043e\u0441\u0442\u044c
p878
(dp879
V\u043e\u0441\u0442\u043e\u0440\u043e\u0436\u043d\u043e\u0441\u0442\u044c
p880
(dp881
V\u0433\u043e\u0441\u043f\u043e\u0434\u044c
p882
(dp883
g7
I224
sssssV\u0434\u043e\u043a\u0430\u0437\u044b\u0432\u0430\u0442\u044c
p884
(dp885
V\u0447\u0442\u043e
p886
(dp887
V\u0442\u044b
p888
(dp889
V\u0433\u0443\u0441\u0430\u0440
p890
(dp891
g7
I93
sssssV\u043f\u043e\u0442\u043e\u043c\u0441\u0442\u0432\u043e
p892
(dp893
V\u0433\u0440\u043e\u0437\u043d\u044b\u0439
p894
(dp895
V\u0441\u0443\u0434\u0438\u044f
p896
(dp897
g7
I433
ssssV\u043f\u043e\u0434
p898
(dp899
V\u0433\u043d\u0435\u0442
p900
(dp901
V\u0432\u043b\u0430\u0441\u0442\u044c
p902
(dp903
V\u0440\u043e\u043a\u043e\u0432\u043e\u0439
p904
(dp905
g7
I237
ssssV\u0441\u0443\u0434
p906
(dp907
V\u043f\u043e\u0434
p908
(dp909
V\u0441\u0443\u0434
p910
(dp911
g7
I238
sssssV\u043c\u0430\u0442\u0435\u0440\u0438\u0430\u043b\u044c\u043d\u043e
p912
(dp913
V\u0442\u0435\u043b\u0435\u0441\u043d\u044b\u0439
p914
(dp915
V\u043d\u0438\u0437
p916
(dp917
g7
I371
ssssV\u0434\u043e\u0440\u043e\u0433\u043e\u0439
p918
(dp919
V\u043c\u043d\u043e\u0433\u043e\u0443\u0432\u0430\u0436\u0430\u0435\u043c\u044b\u0439
p920
(dp921
V\u0448\u043a\u0430\u0444
p922
(dp923
g7
I580
sssV\u043c\u043e\u0439
p924
(dp925
V\u0445\u043e\u0440
p926
(dp927
V\u0440\u043e\u0448\u0438\u0439
p928
(dp929
g7
I94
sssssV\u0432\u0435\u0441\u043d\u0430
p930
(dp931
V\u0441\u0432\u0435\u0442
p932
(dp933
V\u0432\u0435\u0441\u043d\u0430
p934
(dp935
V\u0432\u043e\u0434\u0430
p936
(dp937
g7
I48
ssssV\u0432\u044b\u0441\u0442\u0430\u0432\u043b\u044f\u0442\u044c\u0441\u044f
p938
(dp939
V\u043f\u0435\u0440\u0432\u044b\u0439
p940
(dp941
V\u0440\u0430\u043c\u0430
p942
(dp943
g7
I47
sssssV\u0441\u043b\u043e\u0432\u043e
p944
(dp945
V\u043a\u0430\u043a
p946
(dp947
V\u0442\u0430\u043a\u043e\u0432\u043e\u0439
p948
(dp949
g7
I474
ssssV\u0445\u043e\u0437\u044f\u0438\u043d
p950
(dp951
V\u0442\u043e\u0442
p952
(dp953
V\u043a\u0442\u043e
p954
(dp955
V\u0442\u0440\u0443\u0434\u0438\u0442\u044c\u0441\u044f
p956
(dp957
g7
I334
sssssV\u043c\u043e\u043d\u0442\u0438\u0433\u043e\u043c\u043e
p958
(dp959
V\u044f\u0441\u0442\u0440\u0435\u0431\u0438\u043d\u044b\u0439
p960
(dp961
V\u043a\u043e\u0433\u043e\u0442\u044c
p962
(dp963
g7
I578
ssssV\u043c\u0443\u0436
p964
(dp965
V\u0432
p966
(dp967
V\u0441\u0440\u0430\u0436\u0435\u043d\u0438\u0435
p968
(dp969
V\u0438\u0437\u0443\u0432\u0435\u0447\u0438\u0432\u0430\u0442\u044c
p970
(dp971
g7
I175
sssssV\u043c\u0443\u0445\u0430
p972
(dp973
V\u043a\u0430\u043a
p974
(dp975
V\u0447\u0435\u0440\u043d\u044b\u0439
p976
(dp977
V\u043c\u044b\u0441\u043b\u044c
p978
(dp979
g7
I176
sssssV\u0447\u0443\u0434\u043e
p980
(dp981
V\u0442\u0430\u0439\u043d\u0430
p982
(dp983
V\u0438
p984
(dp985
V\u0430\u0432\u0442\u043e\u0440\u0438\u0442\u0435\u0442
p986
(dp987
g7
I351
ssssV\u044e\u0434\u043e
p988
(dp989
V\u0440\u044b\u0431\u0430
p990
(dp991
V\u043a\u0438\u0442
p992
(dp993
g7
I352
sssssV\u0440\u043e\u043c\u0430\u043d
p994
(dp995
V\u0432\u0435\u043a
p996
(dp997
V\u0431\u0443\u0440\u043d\u044b\u0439
p998
(dp999
V\u043f\u043e\u0442\u043e\u043a
p1000
(dp1001
g7
I266
ssssV\u0442\u0440\u0435\u0431\u043e\u0432\u0430\u0442\u044c
p1002
(dp1003
V\u0431\u043e\u043b\u0442\u043e\u0432\u043d\u044f
p1004
(dp1005
g7
I532
ssssV\u0431\u043e\u043b\u044c\u0448\u043e\u0439
p1006
(dp1007
V\u043c\u043e\u0433\u0443\u0447\u0438\u0439
p1008
(dp1009
V\u0440\u0443\u0441\u0441\u043a\u0438\u0439
p1010
(dp1011
V\u044f\u0437\u044b\u043a
p1012
(dp1013
g7
I19
sssssV\u0433\u0435\u0440\u043e\u0439
p1014
(dp1015
V\u0441\u043a\u0438\u0442\u0430\u043b\u0435\u0446
p1016
(dp1017
V\u043c\u043e\u0440\u0435
p1018
(dp1019
V\u0430\u043b\u044c\u0431\u0430\u0442\u0440\u043e\u0441
p1020
(dp1021
g7
I76
sssssV\u0431\u043b\u043e\u043a
p1022
(dp1023
V\u0442\u0440\u0430\u0433\u0438\u0447\u0435\u0441\u043a\u0438\u0439
p1024
(dp1025
V\u0442\u0435\u043d\u043e\u0440
p1026
(dp1027
V\u044d\u043f\u043e\u0445\u0430
p1028
(dp1029
g7
I16
sssssV\u0441\u0442\u0438\u0445
p1030
(dp1031
V\u043d\u0435
p1032
(dp1033
V\u043f\u0438\u0441\u0430\u0442\u044c\u0441\u044f
p1034
(dp1035
V\u0441\u043b\u0443\u0447\u0430\u0442\u044c\u0441\u044f
p1036
(dp1037
g7
I289
sssssV\u0441\u0432\u0435\u0447\u043d\u043e\u0439
p1038
(dp1039
V\u0437\u0430\u0432\u043e\u0434\u0438\u043a
p1040
(dp1041
V\u0432
p1042
(dp1043
V\u0441\u0430\u043c\u0430\u0440\u0430
p1044
(dp1045
g7
I272
sssssV\u043e\u0442\u043a\u0443\u0434\u0430
p1046
(dp1047
V\u0442\u044b
p1048
(dp1049
V\u043f\u0440\u0435\u043a\u0440\u0430\u0441\u043d\u044b\u0439
p1050
(dp1051
V\u0434\u0438\u0442\u044f
p1052
(dp1053
g7
I225
sssV\u044d\u0444\u0438\u0440
p1054
(dp1055
V\u0436\u0438\u0442\u0435\u043b\u044c
p1056
(dp1057
g7
I226
sssssV\u043e\u0441\u0432\u0435\u043d\u0446\u0438\u043c
p1058
(dp1059
V\u0431\u0435\u0437
p1060
(dp1061
V\u043f\u0435\u0447\u044c
p1062
(dp1063
g7
I430
ssssV\u043f\u043e
p1064
(dp1065
V\u043a\u0430\u043a\u043e\u0439
p1066
(dp1067
V\u0441\u043b\u0443\u0447\u0430\u0439
p1068
(dp1069
V\u0448\u0443\u043c
p1070
(dp1071
g7
I234
sssssV\u0434\u0440\u0430\u0442\u044c
p1072
(dp1073
V\u0441
p1074
(dp1075
V\u0442\u0440\u0443\u0434\u044f\u0449\u0438\u0439\u0441\u044f
p1076
(dp1077
V\u0432\u0442\u0440\u0438\u0434\u043e\u0440\u043e\u0433\u0430
p1078
(dp1079
g7
I97
ssssV\u0442\u043e\u043b\u044c\u043a\u043e
p1080
(dp1081
V\u0441
p1082
(dp1083
V\u043f\u0440\u043e\u0435\u0437\u0436\u0430\u0442\u044c
p1084
(dp1085
g7
I98
sssssV\u044d\u0442\u043e
p1086
(dp1087
V\u0432\u0435\u0441\u044c
p1088
(dp1089
V\u0444\u0440\u0430\u043d\u0446\u0443\u0437
p1090
(dp1091
V\u0433\u0430\u0434\u0438\u0442\u044c
p1092
(dp1093
g7
I356
ssssV\u043d\u0435
p1094
(dp1095
V\u0446\u0430\u0440\u0441\u043a\u0438\u0439
p1096
(dp1097
V\u043d\u0430\u0443\u043a\u0430
p1098
(dp1099
g7
I357
ssssV\u043a\u0430\u043a\u043e\u0439-\u0442\u043e
p1100
(dp1101
V\u043e\u0431\u043b\u043e\u043c\u043e\u0432\u0449\u0438\u043d\u0430
p1102
(dp1103
g7
I410
sssV\u0444\u0430\u043a\u0442
p1104
(dp1105
V\u0432\u0430\u0448
p1106
(dp1107
V\u0431\u0438\u043e\u0433\u0440\u0430\u0444\u0438\u044f
p1108
(dp1109
g7
I358
sssssV\u0448\u0430\u043c\u043f\u0430\u043d\u0441\u043a\u043e\u0435
p1110
(dp1111
V\u0432\u0430\u0444\u043b\u044f
p1112
(dp1113
V\u0437\u0430\u043f\u0438\u0432\u0430\u0442\u044c
p1114
(dp1115
g7
I435
ssssV\u0441\u0430\u043f\u043e\u0433
p1116
(dp1117
V\u0432\u044b\u0448\u0435
p1118
(dp1119
V\u0448\u0435\u043a\u0441\u043f\u0438\u0440
p1120
(dp1121
g7
I596
ssssV\u0436\u0438\u0442\u0438\u0435
p1122
(dp1123
V\u0434\u0443\u0440\u0430\u043a
p1124
(dp1125
V\u043c\u0435\u0436\u0434\u0443
p1126
(dp1127
V\u0442\u0440\u0443\u0441\u044b
p1128
(dp1129
g7
I111
sssssV\u0442\u0430\u0449\u0438\u0442\u044c
p1130
(dp1131
V\u0438
p1132
(dp1133
V\u043d\u0435
p1134
(dp1135
V\u043f\u0443\u0449\u0430\u0442\u044c
p1136
(dp1137
g7
I307
sssssV\u0433\u0430\u043b\u0430\u043d\u0442\u0435\u0440\u043d\u044b\u0439
p1138
(dp1139
V\u043f\u043e\u043b\u043e\u0432\u0438\u043d\u0430
p1140
(dp1141
V\u0447\u0435\u043b\u043e\u0432\u0435\u0447\u0435\u0441\u043a\u0438\u0439
p1142
(dp1143
V\u0440\u043e\u0434
p1144
(dp1145
g7
I75
sssssV\u043a\u043e\u043c\u043c\u0443\u043d\u0438\u0441\u0442\u0438\u0447\u0435\u0441\u043a\u0438\u0439
p1146
(dp1147
V\u043f\u0430\u0440\u0442\u0438\u044f
p1148
(dp1149
V\u0433\u043e\u0441\u0443\u0434\u0430\u0440\u0441\u0442\u0432\u0435\u043d\u043d\u044b\u0439
p1150
(dp1151
V\u0431\u0435\u0437\u043e\u043f\u0430\u0441\u043d\u043e\u0441\u0442\u044c
p1152
(dp1153
g7
I145
sssssV\u0448\u0443\u0442\u043a\u0430
p1154
(dp1155
V\u0441
p1156
(dp1157
V\u0436\u0435\u043b\u0447\u044c
p1158
(dp1159
V\u043f\u043e\u043f\u043e\u043b\u0430\u043c
p1160
(dp1161
g7
I355
sssssV\u043a\u0440\u0430\u0442\u043a\u043e\u0441\u0442\u044c
p1162
(dp1163
V\u0441\u0435\u0441\u0442\u0440\u0430
p1164
(dp1165
V\u0442\u0430\u043b\u0430\u043d\u0442
p1166
(dp1167
g7
I583
ssssV\u0441\u043f\u0435\u0442\u044c
p1168
(dp1169
V\u0441\u0432\u0435\u0442\u0438\u043a
p1170
(dp1171
V\u043d\u0435
p1172
(dp1173
V\u0441\u0442\u044b\u0434\u0438\u0442\u044c\u0441\u044f
p1174
(dp1175
g7
I284
sssssV\u043e\u0434\u0438\u043d
p1176
(dp1177
V\u0437\u043d\u0430\u0447\u0438\u0442\u0435\u043b\u044c\u043d\u044b\u0439
p1178
(dp1179
V\u043b\u0438\u0446\u043e
p1180
(dp1181
g7
I404
ssssV\u0434\u0438\u043a\u0438\u0439
p1182
(dp1183
V\u043d\u0430\u0440\u043e\u0434
p1184
(dp1185
V\u0440\u0435\u0431\u0435\u043d\u043e\u043a
p1186
(dp1187
V\u0433\u043e\u0440\u0430
p1188
(dp1189
g7
I91
sssssV\u043d\u0438\u0437\u043a\u0438\u0439
p1190
(dp1191
V\u0441\u043e\u0440\u0442
p1192
(dp1193
V\u043d\u0435\u0447\u0438\u0441\u0442\u044b\u0439
p1194
(dp1195
V\u0440\u0430\u0431\u043e\u0442\u0430
p1196
(dp1197
g7
I211
sssssV\u0443\u0441\u0438\u043b\u0435\u043d\u043d\u043e
p1198
(dp1199
V\u0441\u043e\u0437\u043d\u0430\u0432\u0430\u0442\u044c
p1200
(dp1201
V\u043c\u044b\u0448\u044c
p1202
(dp1203
g7
I439
ssssV\u0440\u0443\u043a\u043e\u043f\u0438\u0441\u044c
p1204
(dp1205
V\u043d\u0435
p1206
(dp1207
V\u0433\u043e\u0440\u0435\u0442\u044c
p1208
(dp1209
g7
I391
ssssV\u0432\u043e
p1210
(dp1211
V\u0432\u043a\u0443\u0441
p1212
(dp1213
V\u0443\u043c\u043d\u044b\u0439
p1214
(dp1215
V\u0441\u0442\u0430\u0440\u0438\u043d\u0430
p1216
(dp1217
g7
I56
sssssV\u0448\u0430\u0445\u043c\u0430\u0442\u043d\u044b\u0439
p1218
(dp1219
V\u043a\u043b\u0443\u0431
p1220
(dp1221
V\u0447\u0435\u0442\u044b\u0440\u0435
p1222
(dp1223
V\u043a\u043e\u043d\u044c
p1224
(dp1225
g7
I354
sssssV\u0433\u043e\u0441\u043f\u043e\u0434\u0438\u043d
p1226
(dp1227
V\u0441\u0440\u0435\u0434\u043d\u0438\u0439
p1228
(dp1229
V\u0440\u0443\u043a\u0430
p1230
(dp1231
g7
I407
ssssV\u043d\u0430\u0447\u0438\u043d\u0430\u0442\u044c\u0441\u044f
p1232
(dp1233
V\u0447\u0438\u043d
p1234
(dp1235
V\u043f\u0435\u0440\u0435\u0441\u0442\u0430\u0432\u0430\u0442\u044c
p1236
(dp1237
V\u0438\u0441\u043a\u0440\u0435\u043d\u043d\u043e\u0441\u0442\u044c
p1238
(dp1239
g7
I197
sssssV\u043f\u0438\u043b\u0438\u0442\u044c
p1240
(dp1241
V\u0448\u0443\u0440\u0430
p1242
(dp1243
V\u043f\u0438\u043b\u0438\u0442\u044c
p1244
(dp1245
g7
I466
ssssV\u0440\u0435\u0431\u0435\u043d\u043e\u043a
p1246
(dp1247
V\u0436\u0438\u0432\u043e\u0439
p1248
(dp1249
V\u0446\u0432\u0435\u0442\u043e\u043a
p1250
(dp1251
V\u0437\u0435\u043c\u043b\u044f
p1252
(dp1253
g7
I265
sssssV\u043a\u0430\u0432\u044b\u0447\u043a\u0430
p1254
(dp1255
V\u0434\u043b\u044f
p1256
(dp1257
V\u0438\u0434\u0438\u043e\u0442
p1258
(dp1259
g7
I541
ssssV\u043d\u0430\u0431\u043e\u0440\u0449\u0438\u043a
p1260
(dp1261
V\u0433\u043e\u0442\u043e\u0432\u044b\u0439
p1262
(dp1263
V\u0441\u043c\u044b\u0441\u043b
p1264
(dp1265
g7
I486
ssssV\u0432\u0437\u044f\u0442\u044c
p1266
(dp1267
V\u0434\u0430
p1268
(dp1269
V\u0438
p1270
(dp1271
V\u0441\u0442\u0443\u0448\u0435\u0432\u044b\u0432\u0430\u0442\u044c\u0441\u044f
p1272
(dp1273
g7
I51
sssssV\u0432\u044b
p1274
(dp1275
V\u0437\u0434\u0435\u0441\u044c
p1276
(dp1277
V\u043d\u0435
p1278
(dp1279
V\u0441\u0442\u043e\u044f\u0442\u044c
p1280
(dp1281
g7
I69
ssssV\u0436\u0430\u043b\u043a\u0438\u0439
p1282
(dp1283
V\u043d\u0438\u0447\u0442\u043e\u0436\u043d\u044b\u0439
p1284
(dp1285
V\u043b\u0438\u0447\u043d\u043e\u0441\u0442\u044c
p1286
(dp1287
g7
I68
ssssV\u043d\u044b\u043d\u0435\u0448\u043d\u0438\u0439
p1288
(dp1289
V\u043d\u0443\u0442\u043a\u0430
p1290
(dp1291
g7
I420
sssV\u0438\u0437
p1292
(dp1293
V\u0434\u0440\u0443\u0433\u043e\u0439
p1294
(dp1295
V\u043f\u043e\u043a\u043e\u043b\u0435\u043d\u0438\u0435
p1296
(dp1297
g7
I70
ssssV\u043c\u0430\u0442
p1298
(dp1299
V\u0442\u043e\u0432\u0430\u0440\u0438\u0449
p1300
(dp1301
V\u0433\u0440\u043e\u0441\u0441\u043c\u0435\u0439\u0441\u0442\u0435\u0440
p1302
(dp1303
g7
I71
sssssV\u043a\u0430\u043a\u043e\u0439
p1304
(dp1305
V\u0440\u0435\u043f\u0440\u0438\u043c\u0430\u043d\u0442
p1306
(dp1307
V\u043d\u0435\u043e\u0436\u0438\u0434\u0430\u043d\u043d\u044b\u0439
p1308
(dp1309
g7
I406
sssV\u0441\u0438\u043b\u0430
p1310
(dp1311
V\u0434\u0432\u0438\u0433\u0430\u0442\u044c
p1312
(dp1313
V\u043d\u0430\u0440\u043e\u0434
p1314
(dp1315
g7
I143
sssssV\u0441\u043b\u0443\u0448\u0430\u0442\u044c\u0441\u044f
p1316
(dp1317
V\u0438
p1318
(dp1319
V\u043f\u043e\u0432\u0438\u043d\u043e\u0432\u0430\u0442\u044c\u0441\u044f
p1320
(dp1321
g7
I479
ssssV\u043a\u043e\u0444\u0435
p1322
(dp1323
V\u0442\u044b
p1324
(dp1325
V\u0431\u044b\u0442\u044c
p1326
(dp1327
V\u043a\u0430\u043a\u0430\u0432
p1328
(dp1329
g7
I148
sssssV\u0432\u0435\u0441\u044c
p1330
(dp1331
V\u0440\u043e\u0441\u0441\u0438\u044f
p1332
(dp1333
V\u043d\u0430\u0448
p1334
(dp1335
V\u0441\u0430\u0434
p1336
(dp1337
g7
I49
ssssV\u0441\u043c\u0435\u0440\u0442\u044c
p1338
(dp1339
V\u043d\u0430\u0437\u043b\u043e
p1340
(dp1341
g7
I544
ssssV\u0442\u0430\u0440\u0430\u043a\u0430\u043d
p1342
(dp1343
V\u0442\u0430\u0440\u0430\u043a\u0430\u043d
p1344
(dp1345
V\u0442\u0430\u0440\u0430\u043a\u0430\u043d\u0438\u0449\u0435
p1346
(dp1347
g7
I584
ssssV\u0438\u0437\u043e\u0431\u0440\u0435\u0442\u0430\u0442\u0435\u043b\u044c
p1348
(dp1349
V\u0438
p1350
(dp1351
V\u043f\u0440\u0438\u043e\u0431\u0440\u0435\u0442\u0430\u0442\u0435\u043b\u044c
p1352
(dp1353
g7
I572
ssssV\u043b\u044e\u0431\u043e\u0432\u044c
p1354
(dp1355
V\u0432\u0435\u0441\u044c
p1356
(dp1357
V\u0432\u043e\u0437\u0440\u0430\u0441\u0442
p1358
(dp1359
V\u043f\u043e\u043a\u043e\u0440\u043d\u044b\u0439
p1360
(dp1361
g7
I161
ssssV\u044d\u0442\u043e
p1362
(dp1363
V\u0441\u043e\u043d
p1364
(dp1365
V\u0443\u043f\u043e\u0438\u0442\u0435\u043b\u044c\u043d\u044b\u0439
p1366
(dp1367
g7
I163
ssssV\u0443\u0434\u0438\u0432\u043b\u0435\u043d\u0438\u0435
p1368
(dp1369
V\u043c\u0433\u043d\u043e\u0432\u0435\u043d\u043d\u044b\u0439
p1370
(dp1371
V\u0434\u0430\u043d\u044c
p1372
(dp1373
g7
I162
sssssV\u043c\u043e\u043b\u043e\u0434\u043e\u0439
p1374
(dp1375
V\u0448\u0442\u0443\u0440\u043c\u0430\u043d
p1376
(dp1377
V\u0431\u0443\u0434\u0443\u0449\u0438\u0439
p1378
(dp1379
V\u0431\u0443\u0440\u044f
p1380
(dp1381
g7
I172
sssssV\u0443\u0441\u043b\u044b\u0448\u0430\u0442\u044c
p1382
(dp1383
V\u0431\u0443\u0434\u0443\u0449\u0435\u0435
p1384
(dp1385
V\u0437\u043e\u0432
p1386
(dp1387
g7
I503
ssssV\u0436\u0438\u0440\u0430\u0444
p1388
(dp1389
V\u0431\u043e\u043b\u044c\u0448\u043e\u0439
p1390
(dp1391
V\u043e\u043d
p1392
(dp1393
V\u0432\u0438\u0434\u043d\u044b\u0439
p1394
(dp1395
g7
I110
sssssV\u0442\u0440\u0430\u043d\u0441
p1396
(dp1397
V\u0446\u0435\u043d\u0430
p1398
(dp1399
V\u0434\u0435\u043d
p1400
(dp1401
V\u0442\u0430\u043b\u044c\u043d\u043e\u0435
p1402
(dp1403
g7
I314
sssssV\u0438\u0437
p1404
(dp1405
V\u0434\u0430\u043b\u044c\u043d\u0438\u0439
p1406
(dp1407
V\u0441\u0442\u0440\u0430\u043d\u0441\u0442\u0432\u0438\u0435
p1408
(dp1409
V\u0432\u043e\u0437\u0432\u0440\u0430\u0442\u0438\u0442\u044c\u0441\u044f
p1410
(dp1411
g7
I132
ssssV\u043b\u044e\u0431\u043e\u0432\u044c
p1412
(dp1413
V\u043a
p1414
(dp1415
V\u0438\u0441\u043a\u0443\u0441\u0441\u0442\u0432\u043e
p1416
(dp1417
g7
I133
sssssV\u0432\u0441\u0442\u0430\u0432\u0430\u0442\u044c
p1418
(dp1419
V\u043f\u043e\u0434\u044b\u043c\u0430\u0442\u044c\u0441\u044f
p1420
(dp1421
V\u0440\u0430\u0431\u043e\u0447\u0438\u0439
p1422
(dp1423
V\u043d\u0430\u0440\u043e\u0434
p1424
(dp1425
g7
I66
sssssV\u0446\u0435\u043b\u044c
p1426
(dp1427
V\u043f\u043e\u044d\u0437\u0438\u044f
p1428
(dp1429
V\u043f\u043e\u044d\u0437\u0438\u044f
p1430
(dp1431
g7
I429
ssssV\u0441\u0442\u043e\u0440\u043e\u043d\u0438\u0442\u044c\u0441\u044f
p1432
(dp1433
V\u0431\u043e\u0433\u0430\u0447
p1434
(dp1435
V\u0431\u0435\u0434\u043d\u043e\u0442\u0430
p1436
(dp1437
V\u0433\u0443\u043b\u044f\u0442\u044c
p1438
(dp1439
g7
I290
sssssV\u043f\u043e\u0447\u0435\u043c\u0443
p1440
(dp1441
V\u0430\u0431\u043e\u0440\u0438\u0433\u0435\u043d
p1442
(dp1443
V\u0441\u044a\u0435\u0434\u0430\u0442\u044c
p1444
(dp1445
V\u043a\u0443\u043a
p1446
(dp1447
g7
I249
sssssV\u0434\u0440\u0443\u0433
p1448
(dp1449
V\u043c\u043e\u0439
p1450
(dp1451
V\u043f\u0440\u0435\u043a\u0440\u0430\u0441\u043d\u044b\u0439
p1452
(dp1453
V\u0447\u0435\u0440\u0442\u0430
p1454
(dp1455
g7
I100
sssV\u043a\u043d\u0438\u0433\u0430
p1456
(dp1457
g7
I533
ssssV\u0437\u0430\u0432\u0435\u0442
p1458
(dp1459
V\u0433\u0440\u044f\u0434\u0443\u0449\u0438\u0439
p1460
(dp1461
V\u0432\u0435\u0441\u0442\u043d\u0438\u043a
p1462
(dp1463
g7
I511
ssssV\u0441\u0435\u0434\u043e\u0432\u043b\u0430\u0441\u044b\u0439
p1464
(dp1465
V\u043c\u0430\u0433\u0434\u0430\u043b\u0438\u043d\u0430
p1466
(dp1467
V\u043c\u0443\u0436\u0441\u043a\u043e\u0439
p1468
(dp1469
V\u0440\u043e\u0434
p1470
(dp1471
g7
I274
sssssV\u0430\u0440\u0445\u0438\u0441\u043a\u0432\u0435\u0440\u043d\u044b\u0439
p1472
(dp1473
V\u043f\u043e\u0434\u0440\u0430\u0436\u0430\u043d\u0438\u0435
p1474
(dp1475
V\u0430\u0440\u0445\u0438\u0441\u043a\u0432\u0435\u0440\u043d\u044b\u0439
p1476
(dp1477
V\u0434\u043e\u0441\u0442\u043e\u0435\u0432\u0441\u043a\u0438\u0439
p1478
(dp1479
g7
I11
sssssV\u043c\u043e\u043d\u0430\u0448\u0435\u0441\u043a\u0438\u0439
p1480
(dp1481
V\u0438\u0437\u0432\u0435\u0441\u0442\u043d\u044b\u0439
p1482
(dp1483
V\u043f\u043e\u0432\u0435\u0434\u0435\u043d\u0438\u0435
p1484
(dp1485
g7
I419
ssssV\u0442\u0440\u0443\u0441\u043e\u0441\u0442\u044c
p1486
(dp1487
V\u0441\u0430\u043c\u044b\u0439
p1488
(dp1489
V\u0442\u044f\u0436\u043a\u0438\u0439
p1490
(dp1491
V\u043f\u043e\u0440\u043e\u043a
p1492
(dp1493
g7
I317
sssssV\u043d\u0435\u0432\u043e\u043b\u044c\u043d\u0438\u043a
p1494
(dp1495
V\u0447\u0435\u0441\u0442\u044c
p1496
(dp1497
V\u0431\u0435\u0441\u043f\u043e\u0449\u0430\u0434\u043d\u044b\u0439
p1498
(dp1499
g7
I515
ssssV\u043b\u044e\u0431\u0438\u0442\u044c
p1500
(dp1501
V\u0436\u0438\u0432\u043e\u043f\u0438\u0441\u044c
p1502
(dp1503
V\u043f\u043e\u044d\u0442
p1504
(dp1505
g7
I449
sssV\u043a\u043d\u0438\u0433\u0430
p1506
(dp1507
V\u0438\u0441\u0442\u043e\u0447\u043d\u0438\u043a
p1508
(dp1509
V\u0437\u043d\u0430\u043d\u0438\u0435
p1510
(dp1511
g7
I158
ssssV\u043c\u0435\u0447\u0442\u0430
p1512
(dp1513
V\u043c\u043e\u0439
p1514
(dp1515
V\u0441\u043e\u0437\u0434\u0430\u043d\u0438\u0435
p1516
(dp1517
g7
I159
sssssV\u0442\u0440\u0443\u0441\u043e\u0432\u0430\u0442\u044b\u0439
p1518
(dp1519
V\u0431\u044b\u0442\u044c
p1520
(dp1521
V\u0432\u0430\u043d\u044f
p1522
(dp1523
V\u0431\u0435\u0434\u043d\u044b\u0439
p1524
(dp1525
g7
I316
sssssV\u0438\u043d\u0442\u0435\u0440\u0435\u0441\u043d\u044b\u0439
p1526
(dp1527
V\u043d\u0430\u0447\u0438\u043d\u0430\u043d\u0438\u0435
p1528
(dp1529
V\u043c\u0435\u0436\u0434\u0443
p1530
(dp1531
V\u043f\u0440\u043e\u0447\u0435\u0435
p1532
(dp1533
g7
I135
sssssV\u044f
p1534
(dp1535
V\u0441\u043b\u0443\u0448\u0430\u0442\u044c
p1536
(dp1537
V\u0438
p1538
(dp1539
V\u0437\u0430\u0441\u043b\u0443\u0448\u0438\u0432\u0430\u0442\u044c\u0441\u044f
p1540
(dp1541
g7
I363
ssssV\u0447\u0430\u0439\u043d\u0438\u043a
p1542
(dp1543
V\u0437\u0430\u0432\u0430\u0440\u0438\u0432\u0430\u0442\u044c
p1544
(dp1545
V\u044f
p1546
(dp1547
g7
I365
ssssV\u0447\u0435\u043b\u043e\u0432\u0435\u043a
p1548
(dp1549
V\u0438\u0437\u043c\u0443\u0447\u0438\u0432\u0430\u0442\u044c
p1550
(dp1551
V\u043d\u0430\u0440\u0437\u0430\u043d
p1552
(dp1553
g7
I366
ssssV\u043f\u043e\u0441\u043b\u0435\u0434\u043d\u0438\u0439
p1554
(dp1555
V\u043f\u043e\u044d\u0442
p1556
(dp1557
V\u0434\u0435\u0440\u0435\u0432\u043d\u044f
p1558
(dp1559
g7
I362
ssssV\u0437\u0430\u0440\u0430\u0441\u0442\u0430\u0442\u044c
p1560
(dp1561
V\u043f\u0430\u043c\u044f\u0442\u044c
p1562
(dp1563
g7
I540
sssV\u0436\u0435\u043d\u0449\u0438\u043d\u0430
p1564
(dp1565
V\u0441\u043b\u0430\u0431\u044b\u0439
p1566
(dp1567
V\u0431\u0435\u0437\u0437\u0430\u0449\u0438\u0442\u043d\u044b\u0439
p1568
(dp1569
g7
I360
ssssV\u0447\u0438\u0441\u043b\u0438\u0442\u044c\u0441\u044f
p1570
(dp1571
V\u043f\u043e
p1572
(dp1573
V\u0440\u043e\u0441\u0441\u0438\u044f
p1574
(dp1575
g7
I367
ssssV\u0431\u044b\u0442\u044c
p1576
(dp1577
V\u0443\u043c\u043d\u0435\u043d\u044c\u043a\u0438\u0439
p1578
(dp1579
V\u0431\u043b\u0430\u0433\u043e\u0440\u0430\u0437\u0443\u043c\u043d\u0435\u043d\u044c\u043a\u0438\u0439
p1580
(dp1581
g7
I359
ssssV\u0445\u043e\u0442\u0435\u0442\u044c
p1582
(dp1583
V\u0443\u043c\u0438\u0440\u0430\u0442\u044c
p1584
(dp1585
V\u043c\u043e\u043b\u043e\u0434\u043e\u0439
p1586
(dp1587
g7
I364
ssssV\u0438\u0437
p1588
(dp1589
V\u043f\u043e\u0432\u0438\u043d\u043e\u0432\u0435\u043d\u0438\u0435
p1590
(dp1591
V\u0432\u044b\u0445\u043e\u0434\u0438\u0442\u044c
p1592
(dp1593
g7
I361
ssssV\u0441\u043a\u0443\u0447\u043d\u044b\u0439
p1594
(dp1595
V\u0431\u0435\u0441
p1596
(dp1597
g7
I514
ssssV\u0435\u0434\u0438\u043d\u0441\u0442\u0432\u043e
p1598
(dp1599
V\u0444\u043e\u0440\u043c\u0430
p1600
(dp1601
V\u0438
p1602
(dp1603
V\u0441\u043e\u0434\u0435\u0440\u0436\u0430\u043d\u0438\u0435
p1604
(dp1605
g7
I107
sssssV\u043c\u043e\u0439
p1606
(dp1607
V\u043c\u0438\u043b\u0438\u0446\u0438\u044f
p1608
(dp1609
V\u044f
p1610
(dp1611
V\u0431\u0435\u0440\u0435\u0447\u044c
p1612
(dp1613
g7
I170
ssssV\u043e\u0440\u0433\u0430\u043d\u0438\u0437\u043c
p1614
(dp1615
V\u043e\u0442\u0440\u0430\u0432\u043b\u044f\u0442\u044c
p1616
(dp1617
V\u0430\u043b\u043a\u043e\u0433\u043e\u043b\u044c
p1618
(dp1619
g7
I171
sssssV\u0441\u043e\u0432\u0440\u0435\u043c\u0435\u043d\u043d\u044b\u0439
p1620
(dp1621
V\u0442\u0438\u0442\u0430\u043d
p1622
(dp1623
V\u0440\u0443\u0441\u0441\u043a\u0438\u0439
p1624
(dp1625
V\u043c\u044b\u0441\u043b\u044c
p1626
(dp1627
g7
I281
sssssV\u0441\u043b\u043e\u0432\u0430\u0440\u044c
p1628
(dp1629
V\u043b\u044e\u0434\u043e\u0435\u0434\u043a\u0430
p1630
(dp1631
V\u044d\u043b\u043b\u043e\u0447\u043a\u0430
p1632
(dp1633
g7
I456
ssssV\u043e\u0440\u0443\u0436\u0438\u0435
p1634
(dp1635
V\u043b\u044e\u0431\u0438\u043c\u044b\u0439
p1636
(dp1637
V\u0440\u043e\u0434
p1638
(dp1639
g7
I491
ssssV\u0434\u043b\u044f
p1640
(dp1641
V\u0440\u0430\u0434\u0438
p1642
(dp1643
V\u0432\u0430\u0436\u043d\u043e\u0441\u0442\u044c
p1644
(dp1645
g7
I564
sssV\u0431\u043e\u0433
p1646
(dp1647
V\u043c\u0435\u0440\u0442\u0432\u044b\u0439
p1648
(dp1649
V\u043d\u0435\u0442
p1650
(dp1651
g7
I92
sssssV\u0437\u0430\u043a\u0430\u0442
p1652
(dp1653
V\u0432
p1654
(dp1655
V\u043a\u0440\u043e\u0432\u044c
p1656
(dp1657
g7
I377
ssssV\u0441\u043e\u043b\u043e\u0432\u0435\u0439
p1658
(dp1659
V\u0437\u0430\u043b\u0435\u0442\u043d\u044b\u0439
p1660
(dp1661
V\u044e\u043d\u043e\u0441\u0442\u044c
p1662
(dp1663
V\u043f\u0440\u043e\u043b\u0435\u0442\u0435\u0442\u044c
p1664
(dp1665
g7
I282
sssssV\u0440\u0435\u0432\u043e\u043b\u044e\u0446\u0438\u043e\u043d\u043d\u044b\u0439
p1666
(dp1667
V\u043e\u0440\u0434\u0435\u043d
p1668
(dp1669
V\u0438\u043d\u0442\u0435\u043b\u043b\u0438\u0433\u0435\u043d\u0446\u0438\u044f
p1670
(dp1671
g7
I550
ssssV\u0430\u043d\u0435\u043a\u0434\u043e\u0442
p1672
(dp1673
V\u044d\u0442\u043e
p1674
(dp1675
V\u043e\u0434\u0430\u043b\u0436\u0438\u0432\u0430\u0442\u044c
p1676
(dp1677
V\u044e\u043c\u043e\u0440
p1678
(dp1679
g7
I8
sssssV\u0441\u0442\u0430\u0442\u0438\u0441\u0442\u0438\u043a\u0430
p1680
(dp1681
V\u0437\u043d\u0430\u0442\u044c
p1682
(dp1683
V\u0432\u0435\u0441\u044c
p1684
(dp1685
g7
I455
ssssV\u043f\u0440\u043e\u0442\u0438\u0432\u043e\u043f\u043e\u043b\u043e\u0436\u043d\u044b\u0439
p1686
(dp1687
V\u043e\u0431\u0449\u0438\u0439
p1688
(dp1689
V\u043c\u0435\u0441\u0442\u043e
p1690
(dp1691
g7
I565
ssssV\u0431\u043b\u0430\u0433\u043e\u0434\u0430\u0440\u0438\u0442\u044c
p1692
(dp1693
V\u043d\u0435
p1694
(dp1695
V\u043e\u0436\u0438\u0434\u0430\u0442\u044c
p1696
(dp1697
g7
I547
ssssV\u0434\u044b\u0448\u0430\u0442\u044c
p1698
(dp1699
V\u0433\u043b\u0443\u0431\u043e\u043a\u043e
p1700
(dp1701
V\u0432\u044b
p1702
(dp1703
V\u0432\u0437\u0432\u043e\u043b\u043d\u043e\u0432\u0430\u0442\u044c
p1704
(dp1705
g7
I105
sssssV\u0441\u043f\u043b\u044f\u0441\u0430\u0442\u044c
p1706
(dp1707
V\u0446\u044b\u0433\u0430\u043d\u043a\u0430
p1708
(dp1709
V\u0436\u0438\u0437\u043d\u044c
p1710
(dp1711
V\u043c\u043e\u0439
p1712
(dp1713
g7
I286
sssssV\u0442\u0435\u043d\u044c
p1714
(dp1715
V\u0437\u043d\u0430\u0442\u044c
p1716
(dp1717
V\u0441\u0432\u043e\u0435
p1718
(dp1719
V\u043c\u0435\u0441\u0442\u043e
p1720
(dp1721
g7
I309
sssssV\u0447\u0435\u043f\u0443\u0445\u0430
p1722
(dp1723
V\u0431\u0435\u043b\u0438\u0431\u0435\u0440\u0434\u0430
p1724
(dp1725
V\u0441\u0430\u043f\u043e\u0433
p1726
(dp1727
V\u0432\u0441\u043c\u044f\u0442\u043a\u0443
p1728
(dp1729
g7
I341
sssssV\u0448\u043a\u043e\u043b\u0430
p1730
(dp1731
V\u0433\u0430\u0440\u043c\u043e\u043d\u0438\u0447\u0435\u0441\u043a\u0438\u0439
p1732
(dp1733
V\u0442\u043e\u0447\u043d\u043e\u0441\u0442\u044c
p1734
(dp1735
g7
I531
ssssV\u043d\u0438\u043a\u0442\u043e
p1736
(dp1737
V\u043d\u0435
p1738
(dp1739
V\u043e\u0431\u043d\u0438\u043c\u0430\u0442\u044c
p1740
(dp1741
V\u043d\u0435\u043e\u0431\u044a\u044f\u0442\u043d\u044b\u0439
p1742
(dp1743
g7
I212
sssssV\u043e\u043a\u0442\u044f\u0431\u0440\u044c
p1744
(dp1745
V\u0443\u0436
p1746
(dp1747
V\u043d\u0430\u0441\u0442\u0443\u043f\u0430\u0442\u044c
p1748
(dp1749
g7
I510
ssssV\u043a\u043b\u0435\u0439\u043a\u0438\u0439
p1750
(dp1751
V\u0432\u0435\u0441\u0435\u043d\u043d\u0438\u0439
p1752
(dp1753
V\u043b\u0438\u0441\u0442\u043e\u0447\u0435\u043a
p1754
(dp1755
g7
I437
ssssV\u0441\u0435\u0439\u0447\u0430\u0441
p1756
(dp1757
V\u0441\u043e\u0441\u0442\u043e\u044f\u0442\u044c\u0441\u044f
p1758
(dp1759
V\u0432\u044b\u043d\u043e\u0441
p1760
(dp1761
V\u0442\u0435\u043b\u043e
p1762
(dp1763
g7
I276
sssssV\u0433\u043e\u0441\u0442\u044c
p1764
(dp1765
V\u0441\u044a\u0435\u0437\u0436\u0430\u0442\u044c\u0441\u044f
p1766
(dp1767
V\u043d\u0430
p1768
(dp1769
V\u0434\u0430\u0447\u0430
p1770
(dp1771
g7
I83
sssssV\u0441\u043e\u043f\u043b\u0438
p1772
(dp1773
V\u0438
p1774
(dp1775
V\u0432\u043e\u043f\u043b\u044c
p1776
(dp1777
g7
I597
ssssV\u043f\u0440\u043e\u0441\u0442\u043e\u0442\u0430
p1778
(dp1779
V\u043d\u0435\u043e\u0431\u0445\u043e\u0434\u0438\u043c\u044b\u0439
p1780
(dp1781
V\u0443\u0441\u043b\u043e\u0432\u0438\u0435
p1782
(dp1783
V\u043f\u0440\u0435\u043a\u0440\u0430\u0441\u043d\u044b\u0439
p1784
(dp1785
g7
I255
sssssV\u0431\u0430
p1786
(dp1787
V\u0437\u043d\u0430\u043a\u043e\u043c\u044b\u0439
p1788
(dp1789
V\u0432\u0441\u0435
p1790
(dp1791
V\u043b\u0438\u0446\u043e
p1792
(dp1793
g7
I12
sssssV\u0441\u043e\u0433\u043b\u0430\u0441\u043d\u043e
p1794
(dp1795
V\u0437\u0430\u043a\u043e\u043d
p1796
(dp1797
V\u0433\u043e\u0441\u0442\u0435\u043f\u0440\u0438\u0438\u043c\u0441\u0442\u0432\u043e
p1798
(dp1799
g7
I469
ssssV\u043c\u0430\u0434\u0430\u043c
p1800
(dp1801
V\u0443\u0436\u0435
p1802
(dp1803
V\u043f\u0430\u0434\u0430\u0442\u044c
p1804
(dp1805
V\u043b\u0438\u0441\u0442
p1806
(dp1807
g7
I164
sssssV\u043f\u043e\u043b\u0430\u044f\u0442\u044c
p1808
(dp1809
V\u0434\u0430
p1810
(dp1811
V\u043e\u0442\u0441\u0442\u0430\u0432\u0430\u0442\u044c
p1812
(dp1813
g7
I476
ssssV\u043e\u0442
p1814
(dp1815
V\u0436\u0438\u0432\u043e\u0442
p1816
(dp1817
V\u0432\u0435\u0435\u0440
p1818
(dp1819
g7
I428
ssssV\u0430\u0431\u044b\u0440
p1820
(dp1821
V\u0432\u0430\u043b\u0433\u0430
p1822
(dp1823
V\u043e\u0437\u043d\u0430\u0447\u0430\u0442\u044c
p1824
(dp1825
V\u0433\u043b\u0430\u0432\u0440\u044b\u0431\u0430
p1826
(dp1827
g7
I6
sssssV\u043e\u0445
p1828
(dp1829
V\u0433\u043b\u0443\u0445\u043e\u0442\u0430
p1830
(dp1831
V\u0431\u043e\u043b\u044c\u0448\u043e\u0439
p1832
(dp1833
V\u043f\u043e\u0440\u043e\u043a
p1834
(dp1835
g7
I227
sssssV\u0441\u043e\u0432\u0435\u0442\u0441\u043a\u0438\u0439
p1836
(dp1837
V\u0430\u043d\u0442\u0438\u0441\u043e\u0432\u0435\u0442\u0441\u043a\u0438\u0439
p1838
(dp1839
V\u043a\u0430\u043a\u043e\u0439
p1840
(dp1841
V\u0440\u0430\u0437\u043d\u0438\u0446\u0430
p1842
(dp1843
g7
I280
sssssV\u0431\u0435\u0437
p1844
(dp1845
V\u044f
p1846
(dp1847
V\u043d\u0430\u0440\u043e\u0434
p1848
(dp1849
V\u043d\u0435\u043f\u043e\u043b\u043d\u044b\u0439
p1850
(dp1851
g7
I14
sssssV\u043f\u043e\u0437\u0434\u0440\u0430\u0432\u043b\u044f\u0442\u044c
p1852
(dp1853
V\u0432\u044b
p1854
(dp1855
V\u0433\u0440\u0430\u0436\u0434\u0430\u043d\u0438\u043d
p1856
(dp1857
V\u0441\u043e\u0432\u0440\u0430\u043c\u0448\u0430
p1858
(dp1859
g7
I240
sssssV\u043d\u0430\u0441\u0447\u0435\u0442
p1860
(dp1861
V\u0444\u0435\u0434\u043e\u0440
p1862
(dp1863
V\u0440\u0430\u0441\u043f\u043e\u0440\u044f\u0436\u0430\u0442\u044c\u0441\u044f
p1864
(dp1865
g7
I561
ssssV\u0445\u043b\u0435\u0431
p1866
(dp1867
V\u0436\u0438\u0432\u043e\u0439
p1868
(dp1869
V\u0431\u0443\u043c\u0430\u0433\u0430
p1870
(dp1871
V\u0436\u0438\u0432\u043e\u0439
p1872
(dp1873
g7
I333
sssssV\u0432\u0438\u0432\u0430\u0442
p1874
(dp1875
V\u0440\u043e\u0441\u0441\u0438\u044f
p1876
(dp1877
V\u0432\u0438\u0432\u0430\u0442
p1878
(dp1879
V\u0434\u0440\u0430\u0433\u0430\u0439
p1880
(dp1881
g7
I52
sssssV\u0443\u0447\u0438\u0442\u044c\u0441\u044f
p1882
(dp1883
V\u0443
p1884
(dp1885
V\u043a\u043b\u0430\u0441\u0441\u0438\u043a
p1886
(dp1887
g7
I418
ssssV\u0437\u0434\u0435\u0441\u044c
p1888
(dp1889
V\u0432\u0441\u0435
p1890
(dp1891
V\u044f
p1892
(dp1893
V\u043f\u0435\u0440\u0435\u0436\u0438\u0432\u0430\u0442\u044c
p1894
(dp1895
g7
I114
sssssV\u0433\u0430\u0437\u0435\u0442\u0430
p1896
(dp1897
V\u0447\u0442\u043e
p1898
(dp1899
V\u0438\u0437\u0432\u043e\u043b\u0438\u0442\u044c
p1900
(dp1901
V\u0438\u0437\u0434\u0430\u0432\u0430\u0442\u044c
p1902
(dp1903
g7
I73
sssssV\u0437\u0435\u043c\u0448\u0430\u0440\u043d\u0430\u044f
p1904
(dp1905
V\u0440\u0435\u0441\u043f\u0443\u0431\u043b\u0438\u043a\u0430
p1906
(dp1907
V\u0441\u043e\u0432\u0435\u0442
p1908
(dp1909
g7
I473
ssssV\u0441\u0435\u0440\u0435\u0431\u0440\u044f\u043d\u044b\u0439
p1910
(dp1911
V\u0432\u0435\u043a
p1912
(dp1913
V\u0440\u0443\u0441\u0441\u043a\u0438\u0439
p1914
(dp1915
V\u043f\u043e\u044d\u0437\u0438\u044f
p1916
(dp1917
g7
I278
sssssV\u0443\u0441\u043b\u0443\u0436\u043b\u0438\u0432\u044b\u0439
p1918
(dp1919
V\u0434\u0443\u0440\u0430\u043a
p1920
(dp1921
V\u043e\u043f\u0430\u0441\u043d\u043e
p1922
(dp1923
V\u0432\u0440\u0430\u0433
p1924
(dp1925
g7
I329
sssssV\u0441\u043e\u043b\u044c
p1926
(dp1927
V\u0441\u043e\u043b\u044c
p1928
(dp1929
V\u0437\u0435\u043c\u043b\u044f
p1930
(dp1931
g7
I575
ssssV\u043f\u0438\u0441\u0430\u0442\u044c
p1932
(dp1933
V\u043d\u0435
p1934
(dp1935
V\u0433\u0443\u043b\u044f\u0442\u044c
p1936
(dp1937
g7
I556
ssssV\u0431\u043e\u0433
p1938
(dp1939
V\u043d\u0435\u0442\u0443
p1940
(dp1941
V\u0445\u0438\u043c\u0438\u044f
p1942
(dp1943
V\u0432\u0441\u0435
p1944
(dp1945
g7
I18
ssssV\u043d\u0435\u0442
p1946
(dp1947
V\u0434\u0443\u0448\u0430
p1948
(dp1949
V\u043a\u043b\u0435\u0442\u043e\u0447\u043a\u0430
p1950
(dp1951
g7
I17
sssssV\u0432\u0432\u0435\u0434\u0435\u043d\u0438\u0435
p1952
(dp1953
V\u0435\u0434\u0438\u043d\u043e\u043c\u044b\u0441\u043b\u0438\u0435
p1954
(dp1955
V\u0432
p1956
(dp1957
V\u0440\u043e\u0441\u0441\u0438\u044f
p1958
(dp1959
g7
I42
sssssV\u0441\u0442\u0440\u0430\u0434\u0430\u0442\u044c
p1960
(dp1961
V\u0440\u044b\u0434\u0430\u0442\u044c
p1962
(dp1963
V\u0442\u0435\u0440\u043f\u0435\u0442\u044c
p1964
(dp1965
V\u0438\u0441\u0447\u0435\u0437\u0430\u0442\u044c
p1966
(dp1967
g7
I292
sssssV\u043f\u043e\u0433\u0440\u0435\u0431\u0430\u043b\u044c\u043d\u044b\u0439
p1968
(dp1969
V\u043a\u043e\u043d\u0442\u043e\u0440\u0430
p1970
(dp1971
V\u043c\u0438\u043b\u043e\u0441\u0442\u044c
p1972
(dp1973
V\u043f\u0440\u043e\u0441\u0438\u0442\u044c
p1974
(dp1975
g7
I236
sssssV\u0432\u043e\u0434\u0430
p1976
(dp1977
V\u0431\u043b\u0430\u0433\u043e\u0432\u043e\u043b\u0438\u0442\u044c
p1978
(dp1979
V\u043b\u0438\u0442\u044c\u0441\u044f
p1980
(dp1981
g7
I487
ssssV\u0442\u0443\u0447\u043a\u0430
p1982
(dp1983
V\u043d\u0435\u0431\u0435\u0441\u043d\u044b\u0439
p1984
(dp1985
V\u0432\u0435\u0447\u043d\u044b\u0439
p1986
(dp1987
V\u0441\u0442\u0440\u0430\u043d\u043d\u0438\u043a
p1988
(dp1989
g7
I318
sssssV\u0443\u044e\u0442
p1990
(dp1991
V\u043d\u0435\u0442
p1992
(dp1993
V\u043f\u043e\u043a\u043e\u0439
p1994
(dp1995
V\u043d\u0435\u0442
p1996
(dp1997
g7
I331
sssssV\u0431\u044b\u0442\u044c
p1998
(dp1999
V\u0432\u044b\u0441\u043e\u043a\u0438\u0439
p2000
(dp2001
V\u043f\u043e\u0436\u0430\u043b\u043e\u0432\u0430\u0442\u044c
p2002
(dp2003
V\u0443\u043b\u044b\u0431\u043a\u0430
p2004
(dp2005
g7
I23
ssssV\u0446\u0435\u043d\u043d\u043e\u0441\u0442\u044c
p2006
(dp2007
V\u043d\u0435\u0437\u044b\u0431\u043b\u0435\u043c\u044b\u0439
p2008
(dp2009
V\u0441\u043a\u0430\u043b\u0430
p2010
(dp2011
g7
I25
ssssV\u0435\u0449\u0435
p2012
(dp2013
V\u043e\u043a\u0435\u0430\u043d
p2014
(dp2015
g7
I382
sssV\u043a\u0430\u0436\u0434\u044b\u0439
p2016
(dp2017
V\u043f\u0440\u0438
p2018
(dp2019
V\u0441\u0432\u043e\u0439
p2020
(dp2021
g7
I24
sssssV\u0437\u0430
p2022
(dp2023
V\u043c\u043e\u0440\u0435
p2024
(dp2025
V\u0436\u0438\u0442\u0438\u0435
p2026
(dp2027
V\u043d\u0435\u0445\u0443\u0434\u043e
p2028
(dp2029
g7
I113
ssssV\u0433\u0440\u0430\u043d\u044c
p2030
(dp2031
V\u043f\u0440\u043e\u0448\u043b\u044b\u0439
p2032
(dp2033
V\u0434\u0435\u043d\u044c
p2034
(dp2035
g7
I112
sssssV\u0431\u043e\u044f\u0442\u044c\u0441\u044f
p2036
(dp2037
V\u0434\u0430\u043d\u0430\u0435\u0446
p2038
(dp2039
V\u043f\u0440\u0438\u043d\u043e\u0441\u0438\u0442\u044c
p2040
(dp2041
V\u044f\u0439\u0446\u044b
p2042
(dp2043
g7
I21
sssssV\u0433\u0430\u043b\u0430\u043d\u0442\u0435\u0440\u0435\u0439\u043d\u044b\u0439
p2044
(dp2045
V\u0447\u0435\u0440\u0442
p2046
(dp2047
V\u0432\u0437\u044f\u0442\u044c
p2048
(dp2049
V\u043e\u0431\u0445\u043e\u0436\u0434\u0435\u043d\u0438\u0435
p2050
(dp2051
g7
I74
sssssV\u0432\u0438\u0434\u0435\u043d\u0438\u0435
p2052
(dp2053
V\u043f\u0435\u0440\u0432\u043e\u043d\u0430\u0447\u0430\u043b\u044c\u043d\u044b\u0439
p2054
(dp2055
V\u0447\u0438\u0441\u0442\u044b\u0439
p2056
(dp2057
V\u0434\u0435\u043d\u044c
p2058
(dp2059
g7
I53
sssssV\u043a\u043e\u043d\u0442\u043e\u0440\u0430
p2060
(dp2061
V\u0440\u043e\u0433
p2062
(dp2063
V\u0438
p2064
(dp2065
V\u043a\u043e\u043f\u044b\u0442\u043e
p2066
(dp2067
g7
I146
sssssV\u043d\u0434\u0440\u0430\u0432
p2068
(dp2069
V\u043c\u043e\u0439
p2070
(dp2071
V\u043d\u0435
p2072
(dp2073
V\u043f\u0440\u0435\u043f\u044f\u0442\u0441\u0442\u0432\u043e\u0432\u0430\u0442\u044c
p2074
(dp2075
g7
I200
sssssV\u0447\u0438\u0442\u0430\u0442\u044c
p2076
(dp2077
V\u0434\u0435\u0440\u0435\u0432\u043e
p2078
(dp2079
V\u0441\u0442\u0438\u0445
p2080
(dp2081
V\u0433\u0435\u0437\u0438\u043e\u0434
p2082
(dp2083
g7
I344
sssssV\u0441\u0447\u0430\u0441\u0442\u043b\u0438\u0432\u044b\u0439
p2084
(dp2085
V\u0447\u0430\u0441
p2086
(dp2087
V\u043d\u0435
p2088
(dp2089
V\u043d\u0430\u0431\u043b\u044e\u0434\u0430\u0442\u044c
p2090
(dp2091
g7
I296
sssssV\u043f\u0435\u0442\u0435\u0440\u0431\u0443\u0440\u0433\u0441\u043a\u0438\u0439
p2092
(dp2093
V\u0442\u0435\u043a\u0441\u0442
p2094
(dp2095
V\u0440\u0443\u0441\u0441\u043a\u0438\u0439
p2096
(dp2097
V\u043b\u0438\u0442\u0435\u0440\u0430\u0442\u0443\u0440\u0430
p2098
(dp2099
g7
I233
sssssV\u0441\u0442\u0440\u0430\u043d\u043d\u044b\u0439
p2100
(dp2101
V\u0432\u0435\u0449\u044c
p2102
(dp2103
V\u043d\u0435\u043f\u043e\u043d\u044f\u0442\u043d\u044b\u0439
p2104
(dp2105
V\u0432\u0435\u0449\u044c
p2106
(dp2107
g7
I293
sssssV\u0431\u0443\u043d\u0442
p2108
(dp2109
V\u043d\u0430
p2110
(dp2111
V\u043a\u043e\u043b\u0435\u043d\u043e
p2112
(dp2113
g7
I401
ssssV\u043f\u0435\u0440\u0435\u0441\u043a\u0430\u0437\u044b\u0432\u0430\u0442\u044c
p2114
(dp2115
V\u043f\u0440\u0435\u0434\u0430\u043d\u0438\u0435
p2116
(dp2117
V\u0440\u0443\u0441\u0441\u043a\u0438\u0439
p2118
(dp2119
V\u0441\u0435\u043c\u0435\u0439\u0441\u0442\u0432\u043e
p2120
(dp2121
g7
I232
sssssV\u043d\u043e\u0447\u044c
p2122
(dp2123
V\u0443\u043b\u0438\u0446\u0430
p2124
(dp2125
V\u0444\u043e\u043d\u0430\u0440\u044c
p2126
(dp2127
V\u0430\u043f\u0442\u0435\u043a\u0430
p2128
(dp2129
g7
I214
sssssV\u0440\u0443\u043a\u0430
p2130
(dp2131
V\u0432\u0441\u0435\u0432\u044b\u0448\u043d\u0438\u0439
p2132
(dp2133
V\u043e\u0442\u0435\u0447\u0435\u0441\u0442\u0432\u043e
p2134
(dp2135
V\u0441\u043f\u0430\u0441\u0430\u0442\u044c
p2136
(dp2137
g7
I269
ssssV\u0431\u043e\u0435\u0446
p2138
(dp2139
V\u043a\u043e\u043b\u043e\u0442\u044c
p2140
(dp2141
V\u0443\u0441\u0442\u0430\u0432\u0430\u0442\u044c
p2142
(dp2143
g7
I268
ssssV\u0434\u0440\u043e\u0436\u0430\u0442\u044c
p2144
(dp2145
V\u043e\u0442
p2146
(dp2147
V\u0433\u043d\u0435\u0432
p2148
(dp2149
g7
I270
sssssV\u0430
p2150
(dp2151
V\u043b\u0430\u0440\u0447\u0438\u043a
p2152
(dp2153
V\u043f\u0440\u043e\u0441\u0442\u043e
p2154
(dp2155
V\u043e\u0442\u043a\u0440\u044b\u0432\u0430\u0442\u044c\u0441\u044f
p2156
(dp2157
g7
I3
ssssV\u043d\u0430\u043f\u043e\u0441\u043b\u0435\u0434\u043e\u043a
p2158
(dp2159
V\u044f
p2160
(dp2161
V\u0441\u043a\u0430\u0437\u0430\u0442\u044c
p2162
(dp2163
g7
I4
ssssV\u0431\u044b\u0442\u044c
p2164
(dp2165
V\u043b\u0438
p2166
(dp2167
V\u043c\u0430\u043b\u044c\u0447\u0438\u043a
p2168
(dp2169
g7
I0
ssssV\u0433\u043e\u0440\u043b\u043e
p2170
(dp2171
V\u0431\u0440\u0435\u0434\u0438\u0442\u044c
p2172
(dp2173
V\u0431\u0440\u0438\u0442\u0432\u0430
p2174
(dp2175
g7
I2
ssssV\u0444\u0438\u043b\u043e\u0441\u043e\u0444
p2176
(dp2177
V\u0431\u0435\u0437
p2178
(dp2179
V\u043e\u0433\u0443\u0440\u0446\u043e\u0432
p2180
(dp2181
g7
I5
ssssV\u0432\u0441\u0435-\u0442\u0430\u043a\u0438
p2182
(dp2183
V\u0431\u043e\u0433
p2184
(dp2185
V\u0436\u0430\u043b\u043a\u043e
p2186
(dp2187
g7
I1
sssssV\u043d\u0443
p2188
(dp2189
V\u0442\u044b
p2190
(dp2191
V\u0436\u0435\u0440\u0442\u0432\u0430
p2192
(dp2193
V\u0430\u0431\u043e\u0440\u0442
p2194
(dp2195
g7
I217
ssssV\u0435\u0441\u0435\u043d\u0438\u043d
p2196
(dp2197
V\u043c\u0443\u0436\u0438\u043a\u043e\u0432\u0441\u0442\u0432\u0443\u044e\u0449\u0438\u0439
p2198
(dp2199
V\u0441\u0432\u043e\u0440\u0430
p2200
(dp2201
g7
I215
ssssV\u0436
p2202
(dp2203
V\u0431\u044b\u0442\u044c
p2204
(dp2205
V\u0434\u0435\u043d\u0435\u043a
p2206
(dp2207
g7
I216
sssssV\u043e\u0431\u043b\u0430\u043a\u043e
p2208
(dp2209
V\u043d\u0435\u0443\u043b\u043e\u0432\u0438\u043c\u044b\u0439
p2210
(dp2211
V\u0432\u043e\u043b\u043e\u043a\u043d\u0438\u0441\u0442\u044b\u0439
p2212
(dp2213
V\u0441\u0442\u0430\u0434\u043e
p2214
(dp2215
g7
I220
sssssV\u0432\u043e\u0442
p2216
(dp2217
V\u0441\u043b\u0430\u0434\u043a\u0438\u0439
p2218
(dp2219
V\u043f\u043b\u043e\u0434
p2220
(dp2221
V\u0443\u0447\u0435\u043d\u0438\u0435
p2222
(dp2223
g7
I60
ssssV\u0437\u043b\u043e\u043d\u0440\u0430\u0432\u0438\u0435
p2224
(dp2225
V\u0434\u043e\u0441\u0442\u043e\u0439\u043d\u044b\u0439
p2226
(dp2227
V\u043f\u043b\u043e\u0434
p2228
(dp2229
g7
I58
ssssV\u043d\u0435\u0434\u0435\u043b\u044f
p2230
(dp2231
V\u0434\u0440\u0443\u0433\u043e\u0439
p2232
(dp2233
V\u043f\u0440\u043e\u0445\u043e\u0434\u0438\u0442\u044c
p2234
(dp2235
g7
I59
sssssV\u0432\u044b\u0440\u0430\u0436\u0430\u0442\u044c\u0441\u044f
p2236
(dp2237
V\u0441\u0438\u043b\u044c\u043d\u043e
p2238
(dp2239
V\u0440\u043e\u0441\u0441\u0438\u0439\u0441\u043a\u0438\u0439
p2240
(dp2241
V\u043d\u0430\u0440\u043e\u0434
p2242
(dp2243
g7
I72
sssssV\u043d\u0435
p2244
(dp2245
V\u0432\u044b\u0442\u0435\u0440\u043f\u0435\u0442\u044c
p2246
(dp2247
V\u0437\u0430\u0436\u0433\u043b\u043e\u0441\u044c
p2248
(dp2249
V\u0440\u0435\u0442\u0438\u0432\u044b\u0439
p2250
(dp2251
g7
I202
ssssV\u0431\u044b\u0432\u0430\u0442\u044c
p2252
(dp2253
V\u043b\u044e\u0431\u043e\u0432\u044c
p2254
(dp2255
V\u043d\u0435\u0441\u0447\u0430\u0441\u0442\u043b\u0438\u0432\u044b\u0439
p2256
(dp2257
g7
I201
ssssV\u043f\u043e\u043c\u043d\u0438\u0442\u044c
p2258
(dp2259
V\u0440\u043e\u0434\u0441\u0442\u0432\u043e
p2260
(dp2261
g7
I535
sssV\u0441\u0440\u0430\u0432\u043d\u0438\u0432\u0430\u0442\u044c
p2262
(dp2263
V\u0436\u0438\u0442\u044c
p2264
(dp2265
V\u043d\u0435\u0441\u0440\u0430\u0432\u043d\u0438\u043c\u044b\u0439
p2266
(dp2267
g7
I204
ssssV\u0447\u0438\u0442\u0430\u0442\u0435\u043b\u044c
p2268
(dp2269
V\u0430
p2270
(dp2271
V\u043f\u0438\u0441\u0430\u0442\u0435\u043b\u044c
p2272
(dp2273
g7
I205
ssssV\u043e\u0431\u043c\u0430\u043d\u044b\u0432\u0430\u0442\u044c
p2274
(dp2275
V\u043d\u0435
p2276
(dp2277
V\u043f\u0440\u043e\u0434\u0430\u0432\u0430\u0442\u044c
p2278
(dp2279
g7
I203
sssssV\u043d\u043e\u0432\u0430\u0442\u043e\u0440
p2280
(dp2281
V\u0434\u043e
p2282
(dp2283
V\u0432\u0435\u0440\u0436\u0431\u043e\u043b\u043e\u0432
p2284
(dp2285
g7
I450
ssssV\u043d\u0430
p2286
(dp2287
V\u0432\u043e\u043b\u044f
p2288
(dp2289
V\u0432
p2290
(dp2291
V\u043f\u0430\u043c\u043f\u0430\u0441\u044b
p2292
(dp2293
g7
I186
ssssV\u0442\u0440\u0438\u0437\u043d\u0430
p2294
(dp2295
V\u0433\u0440\u043e\u0437\u043d\u044b\u0439
p2296
(dp2297
V\u043e\u0442\u0435\u0446
p2298
(dp2299
g7
I192
ssssV\u043f\u043e\u043b\u0435
p2300
(dp2301
V\u0431\u0440\u0430\u0442\u044c
p2302
(dp2303
V\u0442\u0438\u0448\u0438\u043d\u0430
p2304
(dp2305
g7
I190
ssssV\u0442\u043e\u0442
p2306
(dp2307
V\u0432\u043e\u0439\u043d\u0430
p2308
(dp2309
V\u043d\u0435\u0437\u043d\u0430\u043c\u0435\u043d\u0438\u0442\u044b\u0439
p2310
(dp2311
g7
I191
ssssV\u043b\u043e\u043d\u043e
p2312
(dp2313
V\u0441\u0435\u043b\u044c\u0441\u043a\u0438\u0439
p2314
(dp2315
V\u0442\u0438\u0448\u0438\u043d\u0430
p2316
(dp2317
g7
I187
ssssV\u043b\u0443\u0436\u0430\u0439\u043a\u0430
p2318
(dp2319
V\u0434\u0435\u0442\u0441\u043a\u0438\u0439
p2320
(dp2321
V\u043a\u0440\u0438\u043a
p2322
(dp2323
g7
I188
ssssV\u043d\u0430\u0448
p2324
(dp2325
V\u043f\u0440\u043e\u0449\u0430\u043b\u044c\u043d\u044b\u0439
p2326
(dp2327
V\u0443\u0436\u0438\u043d
p2328
(dp2329
g7
I189
sssssV\u043b\u0438\u0442\u0435\u0440\u0430\u0442\u0443\u0440\u043d\u044b\u0439
p2330
(dp2331
V\u043f\u043e\u043f\u0443\u0442\u0447\u0438\u043a
p2332
(dp2333
V\u0440\u0435\u0432\u043e\u043b\u044e\u0446\u0438\u044f
p2334
(dp2335
g7
I560
ssssV\u0441\u043b\u0430\u0434\u043a\u0438\u0439
p2336
(dp2337
V\u0431\u0440\u0435\u043c\u044f
p2338
(dp2339
V\u0441\u043b\u0430\u0432\u0430
p2340
(dp2341
g7
I463
ssssV\u043d\u043e
p2342
(dp2343
V\u0431\u043e\u0436\u0435\u0441\u0442\u0432\u043e
p2344
(dp2345
V\u043c\u043e\u0439
p2346
(dp2347
V\u043f\u0440\u043e\u0433\u043e\u043b\u043e\u0434\u0430\u0442\u044c\u0441\u044f
p2348
(dp2349
g7
I213
sssssV\u0432\u0435\u043b\u0438\u043a\u043e\u043b\u0435\u043f\u043d\u044b\u0439
p2350
(dp2351
V\u043a\u043d\u044f\u0437\u044c
p2352
(dp2353
V\u0442\u0430\u0432\u0440\u0438\u0434\u0430
p2354
(dp2355
g7
I432
ssssV\u0431\u0438\u0442\u0438\u0435
p2356
(dp2357
V\u043e\u043f\u0440\u0435\u0434\u0435\u043b\u044f\u0442\u044c
p2358
(dp2359
V\u0441\u043e\u0437\u043d\u0430\u043d\u0438\u0435
p2360
(dp2361
g7
I372
ssssV\u043f\u0440\u0435\u043a\u0440\u0430\u0441\u043d\u044b\u0439
p2362
(dp2363
V\u0431\u044b\u0442\u044c
p2364
(dp2365
V\u0436\u0438\u0437\u043d\u044c
p2366
(dp2367
g7
I576
sssV\u0432\u044b
p2368
(dp2369
V\u0431\u0440\u0435\u0433
p2370
(dp2371
V\u0442\u0430\u0432\u0440\u0438\u0434\u0430
p2372
(dp2373
g7
I251
sssssV\u043e\u0440\u043e\u0431\u0435\u0442\u044c
p2374
(dp2375
V\u0437\u0430\u0433\u043e\u0440\u0435\u0432\u0430\u0442\u044c
p2376
(dp2377
V\u043a\u0443\u0440\u0438\u0446\u0430
p2378
(dp2379
V\u043e\u0431\u0438\u0436\u0430\u0442\u044c
p2380
(dp2381
g7
I223
sssssV\u0433\u043e\u0440\u044c\u043a\u0438\u0439
p2382
(dp2383
V\u0441\u043b\u043e\u0432\u043e
p2384
(dp2385
V\u043c\u043e\u0439
p2386
(dp2387
V\u043f\u043e\u0441\u043c\u0435\u044f\u0442\u044c\u0441\u044f
p2388
(dp2389
g7
I82
sssssV\u0434\u044b\u0440\u0430
p2390
(dp2391
V\u0431\u0443\u043b
p2392
(dp2393
V\u0449\u044b\u043b
p2394
(dp2395
V\u0443\u0431\u0435\u0448\u0449\u0443\u0440
p2396
(dp2397
g7
I104
sssssV\u043a\u0440\u0435\u0441\u0442\u044c\u044f\u043d\u0438\u043d
p2398
(dp2399
V\u0432
p2400
(dp2401
V\u0437\u0430\u043a\u043e\u043d
p2402
(dp2403
V\u043c\u0435\u0440\u0442\u0432\u044b\u0439
p2404
(dp2405
g7
I150
sssssV\u043f\u043e\u0437\u0432\u043e\u043b\u044f\u0442\u044c
p2406
(dp2407
V\u0432\u044b
p2408
(dp2409
V\u0432\u044b\u0445\u043e\u0434\u0438\u0442\u044c
p2410
(dp2411
V\u0432\u043e\u043d
p2412
(dp2413
g7
I239
sssssV\u043a\u043b\u0443\u0431
p2414
(dp2415
V\u0432\u0437\u0432\u043e\u043b\u043d\u043e\u0432\u0430\u043d\u043d\u044b\u0439
p2416
(dp2417
V\u043b\u043e\u0431\u043e\u0442\u0440\u044f\u0441
p2418
(dp2419
g7
I538
ssssV\u0441\u044b\u0441\u043a\u0430\u0442\u044c
p2420
(dp2421
V\u043d\u0430\u0447\u0430\u043b\u043e
p2422
(dp2423
V\u0432\u0441\u0435
p2424
(dp2425
V\u043d\u0430\u0447\u0438\u043d\u0430\u0442\u044c
p2426
(dp2427
g7
I300
sssssV\u0442\u0440\u043e\u0439\u043a\u0430
p2428
(dp2429
V\u0441\u0435\u043c\u0435\u0440\u043a\u0430
p2430
(dp2431
V\u0442\u0443\u0437
p2432
(dp2433
g7
I529
ssssV\u0438\u0442\u0430\u043a
p2434
(dp2435
V\u043e\u043d\u0430
p2436
(dp2437
V\u0437\u0432\u0430\u0442\u044c\u0441\u044f
p2438
(dp2439
V\u0442\u0430\u0442\u044c\u044f\u043d\u0430
p2440
(dp2441
g7
I140
sssssV\u0441\u044e\u0436\u0435\u0442
p2442
(dp2443
V\u0434\u043b\u044f
p2444
(dp2445
V\u043d\u0435\u0431\u043e\u043b\u044c\u0448\u043e\u0439
p2446
(dp2447
V\u0440\u0430\u0441\u0441\u043a\u0430\u0437
p2448
(dp2449
g7
I301
ssssV\u0434\u043e\u0441\u0442\u043e\u0439\u043d\u044b\u0439
p2450
(dp2451
V\u043a\u0438\u0441\u0442\u044c
p2452
(dp2453
V\u0430\u0439\u0432\u0430\u0437\u043e\u0432\u0441\u043a\u0438\u0439
p2454
(dp2455
g7
I302
sssssV\u0448\u0435\u043a\u0441\u043d\u0438\u043d\u0441\u043a
p2456
(dp2457
V\u0441\u0442\u0435\u0440\u043b\u044f\u0434\u044c
p2458
(dp2459
V\u0437\u043e\u043b\u043e\u0442\u043e\u0439
p2460
(dp2461
g7
I434
ssssV\u0441\u0435\u0439
p2462
(dp2463
V\u043f\u0442\u0435\u043d\u0435\u0446
p2464
(dp2465
V\u0433\u043d\u0435\u0437\u0434\u043e
p2466
(dp2467
V\u043f\u0435\u0442\u0440\u043e\u0432
p2468
(dp2469
g7
I275
sssssV\u0431\u0435\u043d\u0437\u0438\u043d
p2470
(dp2471
V\u0432\u0430\u0448
p2472
(dp2473
V\u0438\u0434\u0435\u044f
p2474
(dp2475
V\u043d\u0430\u0448
p2476
(dp2477
g7
I15
sssssV\u0434\u0443\u0440\u0430\u0447\u0438\u043d\u0430
p2478
(dp2479
V\u0442\u044b
p2480
(dp2481
V\u043f\u0440\u043e\u0441\u0442\u043e\u0444\u0438\u043b\u044f
p2482
(dp2483
g7
I517
ssssV\u0438\u043d\u0444\u043e\u0440\u043c\u0430\u0446\u0438\u044f
p2484
(dp2485
V\u043a
p2486
(dp2487
V\u0440\u0430\u0437\u043c\u044b\u0448\u043b\u0435\u043d\u0438\u0435
p2488
(dp2489
g7
I543
ssssV\u043f\u043e\u0442\u043d\u044b\u0439
p2490
(dp2491
V\u0432\u0430\u043b
p2492
(dp2493
V\u0432\u0434\u043e\u0445\u043d\u043e\u0432\u0435\u043d\u0438\u0435
p2494
(dp2495
g7
I468
ssssV\u0432\u0441\u0435\u0441\u0438\u043b\u044c\u043d\u044b\u0439
p2496
(dp2497
V\u0431\u043e\u0433
p2498
(dp2499
V\u0434\u0435\u0442\u0430\u043b\u044c
p2500
(dp2501
g7
I504
ssssV\u043d\u0443\u0436\u043d\u043e
p2502
(dp2503
V\u043f\u0440\u043e\u0435\u0437\u0436\u0438\u0432\u0430\u0442\u044c\u0441\u044f
p2504
(dp2505
V\u043f\u043e
p2506
(dp2507
V\u0440\u043e\u0441\u0441\u0438\u044f
p2508
(dp2509
g7
I218
sssssV\u043f\u0440\u0438\u043d\u0446\u0438\u043f
p2510
(dp2511
V\u043f\u0430\u0440\u0442\u0438\u0439\u043d\u043e\u0441\u0442\u044c
p2512
(dp2513
V\u043b\u0438\u0442\u0435\u0440\u0430\u0442\u0443\u0440\u0430
p2514
(dp2515
g7
I480
ssssV\u0432\u0435\u0440\u0435\u0432\u043a\u0430
p2516
(dp2517
V\u0432\u0435\u0449\u044c
p2518
(dp2519
V\u043a\u0430\u043a\u043e\u0439
p2520
(dp2521
g7
I568
sssV\u0432\u0435\u0440\u0432\u0438\u0435
p2522
(dp2523
V\u043f\u0440\u043e\u0441\u0442\u043e\u0439
p2524
(dp2525
g7
I569
ssssV\u0442\u043e\u0432\u0430\u0440\u0438\u0449
p2526
(dp2527
V\u0443\u0447\u0435\u043d\u044b\u0439
p2528
(dp2529
V\u044d\u0439\u043d\u0448\u0442\u0435\u0439\u043d
p2530
(dp2531
V\u0434\u0440\u0430\u0433\u043e\u0446\u0435\u043d\u043d\u044b\u0439
p2532
(dp2533
g7
I310
sssssV\u0432\u0435\u0440\u043d\u0443\u0442\u044c\u0441\u044f
p2534
(dp2535
V\u0432
p2536
(dp2537
V\u0440\u043e\u0441\u0441\u0438\u044f
p2538
(dp2539
V\u0441\u0442\u0438\u0445
p2540
(dp2541
g7
I46
sssssV\u0443\u043c\u0435\u0440\u0435\u043d\u043d\u043e\u0441\u0442\u044c
p2542
(dp2543
V\u0431\u044b\u0442\u044c
p2544
(dp2545
V\u0445\u043e\u0440\u043e\u0448\u0438\u0439
p2546
(dp2547
V\u043f\u0438\u0440
p2548
(dp2549
g7
I326
sssssV\u0430\u0445
p2550
(dp2551
V\u043a\u0430\u043a\u043e\u0439
p2552
(dp2553
V\u043f\u0430\u0441\u0441\u0430\u0436
p2554
(dp2555
g7
I405
ssssV\u0443\u0442\u0440\u043e
p2556
(dp2557
V\u0434\u0435\u043d\u044c\u0433\u0438
p2558
(dp2559
V\u0432\u0435\u0447\u0435\u0440
p2560
(dp2561
V\u0441\u0442\u0443\u043b
p2562
(dp2563
g7
I330
sssssV\u043a\u0440\u0438\u0431\u043b\u0430
p2564
(dp2565
V\u043a\u0440\u0430\u0431\u043b\u044c
p2566
(dp2567
V\u0431\u0443\u043c\u0441
p2568
(dp2569
g7
I585
ssssV\u043c\u043b\u0430\u0434\u043e\u0439
p2570
(dp2571
V\u043a\u0440\u043e\u0432\u044c
p2572
(dp2573
V\u0438\u0433\u0440\u0430\u0442\u044c
p2574
(dp2575
g7
I519
ssssV\u0432\u043b\u0430\u0441\u0442\u0438\u0442\u0435\u043b\u044c
p2576
(dp2577
V\u0438
p2578
(dp2579
V\u0441\u0443\u0434\u044c\u044f
p2580
(dp2581
g7
I431
ssssV\u0436\u0430\u043d\u0434\u0430\u0440\u043c
p2582
(dp2583
V\u0443\u0442\u0438\u0440\u0430\u0442\u044c
p2584
(dp2585
V\u0441\u043b\u0435\u0437\u0430
p2586
(dp2587
g7
I537
ssssV\u043e\u043d\u0438
p2588
(dp2589
V\u0434\u0430\u0440\u043e\u043c
p2590
(dp2591
V\u0431\u0440\u0435\u043c\u0435\u043d\u0438\u0442\u044c
p2592
(dp2593
V\u0437\u0435\u043c\u043b\u044f
p2594
(dp2595
g7
I222
sssssV\u0440\u0430\u0441\u0441\u0443\u0434\u043e\u043a
p2596
(dp2597
V\u0432\u043e\u043f\u0440\u0435\u043a\u0438
p2598
(dp2599
V\u043d\u0430\u043f\u0435\u0440\u0435\u043a\u043e\u0440
p2600
(dp2601
V\u0441\u0442\u0438\u0445\u0438\u044f
p2602
(dp2603
g7
I264
sssssV\u0430\u043b\u044c\u043f\u0438\u043d\u0438\u0441\u0442\u043a\u0430
p2604
(dp2605
V\u043c\u043e\u0439
p2606
(dp2607
V\u0441\u043a\u0430\u043b\u043e\u043b\u0430\u0437\u043a\u0430
p2608
(dp2609
V\u043c\u043e\u0439
p2610
(dp2611
g7
I7
sssssV\u0442\u043e\u0441\u043a\u0430
p2612
(dp2613
V\u043f\u043e
p2614
(dp2615
V\u043c\u0438\u0440\u043e\u0432\u043e\u0439
p2616
(dp2617
V\u043a\u0443\u043b\u044c\u0442\u0443\u0440\u0430
p2618
(dp2619
g7
I313
sssssV\u043f\u043b\u043e\u0434\u043e\u0442\u0432\u043e\u0440\u043d\u044b\u0439
p2620
(dp2621
V\u0434\u0435\u0431\u044e\u0442\u043d\u044b\u0439
p2622
(dp2623
V\u0438\u0434\u0435\u044f
p2624
(dp2625
g7
I458
ssssV\u043d\u0435\u0442
p2626
(dp2627
V\u0443\u0437\u044b
p2628
(dp2629
V\u0441\u0432\u044f\u0442\u043e\u0439
p2630
(dp2631
V\u0442\u043e\u0432\u0430\u0440\u0438\u0449\u0435\u0441\u0442\u0432\u043e
p2632
(dp2633
g7
I209
ssssV\u0436\u0435\u043d\u0449\u0438\u043d\u0430
p2634
(dp2635
V\u0431\u044b\u0442\u044c
p2636
(dp2637
V\u0430\u043d\u0442\u0438\u043c\u0443\u0436\u0447\u0438\u043d\u0430
p2638
(dp2639
g7
I208
ssssV\u0440\u0435\u0431\u044f\u0442\u044b
p2640
(dp2641
V\u0434\u0435\u043c\u043e\u043a\u0440\u0430\u0442
p2642
(dp2643
g7
I396
ssssV\u043e\u0445\u043c\u0443\u0440\u044f\u0442\u044c
p2644
(dp2645
V\u0441\u0430\u043c\u044b\u0439
p2646
(dp2647
V\u043e\u0445\u043c\u0443\u0440\u0435\u0436
p2648
(dp2649
V\u0438\u0434\u0442\u0438
p2650
(dp2651
g7
I228
sssssV\u0437\u0430\u043d\u044f\u0442\u044b\u0439
p2652
(dp2653
V\u0441\u043a\u0430\u0437\u0430\u0442\u044c
p2654
(dp2655
V\u0443\u043c\u0438\u0440\u0430\u0442\u044c
p2656
(dp2657
g7
I539
ssssV\u0438\u043d\u0434\u0430
p2658
(dp2659
V\u0432\u0437\u043e\u043f\u0440\u0435\u0442\u044c
p2660
(dp2661
V\u043e\u0437\u0438\u043c\u044b\u0435
p2662
(dp2663
g7
I464
ssssV\u0440\u0430\u0437\u0440\u0435\u0448\u0430\u0442\u044c\u0441\u044f
p2664
(dp2665
V\u043e\u0442
p2666
(dp2667
V\u0431\u0440\u0435\u043c\u044f
p2668
(dp2669
V\u0434\u0440\u0430\u043c\u0430
p2670
(dp2671
g7
I263
sssssV\u043f\u0440\u0435\u043b\u0435\u0441\u0442\u043d\u044b\u0439
p2672
(dp2673
V\u0431\u0435\u0437\u0434\u043d\u0430
p2674
(dp2675
V\u0431\u0435\u0437\u0434\u043d\u0430
p2676
(dp2677
V\u0432\u043e\u0441\u0442\u043e\u0440\u0433
p2678
(dp2679
g7
I252
sssssV\u043d\u0430\u0447\u0430\u043b\u044c\u0441\u0442\u0432\u043e
p2680
(dp2681
V\u0438\u043c\u0435\u0442\u044c
p2682
(dp2683
V\u0442\u043e\u043d\u043a\u0438\u0439
p2684
(dp2685
V\u0432\u0438\u0434
p2686
(dp2687
g7
I196
sssssV\u0448\u0430\u0433\u043d\u0443\u0442\u044c
p2688
(dp2689
V\u0438
p2690
(dp2691
V\u0446\u0430\u0440\u0441\u0442\u0432\u043e
p2692
(dp2693
V\u043f\u043e\u043a\u043e\u0440\u044f\u0442\u044c
p2694
(dp2695
g7
I353
sssssV\u0441\u043f\u0430\u0442\u044c
p2696
(dp2697
V\u043e\u0440\u0435\u043b
p2698
(dp2699
V\u0431\u043e\u0435\u0432\u043e\u0439
p2700
(dp2701
g7
I502
ssssV\u0434\u0440\u043e\u0436\u0430\u0442\u044c
p2702
(dp2703
V\u043e\u0433\u043e\u043d\u044c
p2704
(dp2705
V\u043f\u0435\u0447\u0430\u043b\u044c\u043d\u044b\u0439
p2706
(dp2707
V\u0434\u0435\u0440\u0435\u0432\u043d\u044f
p2708
(dp2709
g7
I99
sssssV\u043b\u0438\u0442\u0435\u0440\u0430\u0442\u043e\u0440
p2710
(dp2711
V\u043f\u043e\u043f\u0438\u0441\u044b\u0432\u0430\u0442\u044c
p2712
(dp2713
V\u0447\u0438\u0442\u0430\u0442\u0435\u043b\u044c
p2714
(dp2715
V\u043f\u043e\u0447\u0438\u0442\u044b\u0432\u0430\u0442\u044c
p2716
(dp2717
g7
I156
sssssV\u043b\u0430\u043d\u0434\u044b\u0448
p2718
(dp2719
V\u043b\u044e\u0442\u0438\u043a
p2720
(dp2721
V\u043b\u0430\u0441\u043a\u0430
p2722
(dp2723
V\u043b\u044e\u0431\u043e\u0432\u043d\u044b\u0439
p2724
(dp2725
g7
I155
sssssV\u0442\u0430\u043c
p2726
(dp2727
V\u0447\u0435\u043b\u043e\u0432\u0435\u043a
p2728
(dp2729
V\u0441\u0433\u043e\u0440\u0430\u0442\u044c
p2730
(dp2731
g7
I567
ssssV\u0444\u0440\u0430\u043d\u0446\u0443\u0437\u0438\u043a
p2732
(dp2733
V\u0438\u0437
p2734
(dp2735
V\u0431\u043e\u0440\u0434\u043e
p2736
(dp2737
g7
I424
ssssV\u0441\u0442\u0440\u0443\u043d\u0430
p2738
(dp2739
V\u0437\u0432\u0435\u043d\u0435\u0442\u044c
p2740
(dp2741
V\u0432
p2742
(dp2743
V\u0442\u0443\u043c\u0430\u043d
p2744
(dp2745
g7
I295
sssssV\u043a\u0430\u0440\u044c\u0435\u0440\u0430
p2746
(dp2747
V\u0438
p2748
(dp2749
V\u0444\u043e\u0440\u0442\u0443\u043d\u0430
p2750
(dp2751
g7
I412
ssssV\u0441\u0435\u0434\u044c\u043c\u043e\u0439
p2752
(dp2753
V\u0432\u0435\u043b\u0438\u043a\u0438\u0439
p2754
(dp2755
V\u0434\u0435\u0440\u0436\u0430\u0432\u0430
p2756
(dp2757
g7
I536
ssssV\u043d\u0438\u0447\u0442\u043e
p2758
(dp2759
V\u043d\u0438\u0447\u0435\u0433\u043e
p2760
(dp2761
V\u043c\u043e\u043b\u0447\u0430\u043d\u0438\u0435
p2762
(dp2763
g7
I402
ssssV\u043e\u0447\u0435\u043d\u044c
p2764
(dp2765
V\u0441\u0432\u043e\u0435\u0432\u0440\u0435\u043c\u0435\u043d\u043d\u044b\u0439
p2766
(dp2767
V\u043a\u043d\u0438\u0433\u0430
p2768
(dp2769
g7
I482
ssssV\u043a\u0440\u0430\u0439
p2770
(dp2771
V\u043c\u043e\u0441\u043a\u0432\u0430
p2772
(dp2773
V\u043a\u0440\u0430\u0439
p2774
(dp2775
V\u0440\u043e\u0434\u043d\u043e\u0439
p2776
(dp2777
g7
I149
ssssV\u043d\u0435\u043f\u0443\u0433\u0430\u043d\u044b\u0439
p2778
(dp2779
V\u0438\u0434\u0438\u043e\u0442
p2780
(dp2781
g7
I451
ssssV\u043d\u0438\u043e\u0442\u043a\u0443\u0434\u0430
p2782
(dp2783
V\u0441
p2784
(dp2785
V\u043b\u044e\u0431\u043e\u0432\u044c
p2786
(dp2787
g7
I387
ssssV\u0440\u0430\u0437\u043b\u0443\u043a\u0430
p2788
(dp2789
V\u0443\u043d\u043e\u0441\u0438\u0442\u044c
p2790
(dp2791
V\u043b\u044e\u0431\u043e\u0432\u044c
p2792
(dp2793
g7
I477
ssssV\u043e\u043d\u0430
p2794
(dp2795
V\u0431\u044b\u0442\u044c
p2796
(dp2797
V\u043c\u0435\u0447\u0442\u0430
p2798
(dp2799
V\u043f\u043e\u044d\u0442
p2800
(dp2801
g7
I221
sssssV\u0441\u044b\u043d
p2802
(dp2803
V\u043b\u0435\u0439\u0442\u0435\u043d\u0430\u043d\u0442
p2804
(dp2805
V\u0448\u043c\u0438\u0434\u0442
p2806
(dp2807
g7
I462
sssV\u0442\u0432\u043e\u0439
p2808
(dp2809
V\u043b\u044e\u0431\u0438\u043c\u0435\u0446
p2810
(dp2811
V\u0441\u043b\u0430\u0432\u0430
p2812
(dp2813
g7
I299
ssssV\u0431\u043e\u043b\u044c\u043d\u043e\u0439
p2814
(dp2815
V\u0431\u043e\u043b\u044c\u043d\u043e\u0439
p2816
(dp2817
V\u0432\u0435\u043a
p2818
(dp2819
g7
I298
sssssV\u043c\u0430\u0441\u0442\u0435\u0440\u0441\u043a\u0438\u0439
p2820
(dp2821
V\u0447\u0435\u043b\u043e\u0432\u0435\u0447\u0438\u0439
p2822
(dp2823
V\u0432\u043e\u0441\u043a\u0440\u0435\u0448\u0435\u043d\u0438\u0435
p2824
(dp2825
g7
I492
ssssV\u0434\u0432\u0430\u0434\u0446\u0430\u0442\u044c
p2826
(dp2827
V\u0434\u0432\u0430
p2828
(dp2829
V\u043d\u0435\u0441\u0447\u0430\u0441\u0442\u0438\u0435
p2830
(dp2831
g7
I579
ssssV\u0443\u0431\u0438\u0432\u0430\u0442\u044c
p2832
(dp2833
V\u043f\u043e
p2834
(dp2835
V\u0442\u0435\u043e\u0440\u0438\u044f
p2836
(dp2837
g7
I442
ssssV\u043b\u0438\u0448\u044c
p2838
(dp2839
V\u043c\u043e\u0440\u0435
p2840
(dp2841
V\u0447\u0435\u0440\u043d\u044b\u0439
p2842
(dp2843
V\u0448\u0443\u043c\u0435\u0442\u044c
p2844
(dp2845
g7
I157
sssssV\u0434\u0440\u0430\u043f\u0438\u0440\u043e\u0432\u0430\u0442\u044c\u0441\u044f
p2846
(dp2847
V\u0432
p2848
(dp2849
V\u0431\u0430\u0439\u0440\u043e\u043d\u043e\u0432\u0441\u043a\u0438\u0439
p2850
(dp2851
V\u043f\u043b\u0430\u0449
p2852
(dp2853
g7
I96
sssssV\u043f\u0435\u0440\u0435\u0432\u043e\u0434\u0447\u0438\u043a
p2854
(dp2855
V\u043f\u043e\u0447\u0442\u043e\u0432\u044b\u0439
p2856
(dp2857
V\u043b\u043e\u0448\u0430\u0434\u044c
p2858
(dp2859
V\u043f\u0440\u043e\u0441\u0432\u0435\u0449\u0435\u043d\u0438\u0435
p2860
(dp2861
g7
I231
sssssV\u0441\u0442\u0440\u0430\u0434\u0430\u043d\u0438\u0435
p2862
(dp2863
V\u043a\u0443\u043f\u0438\u0442\u044c
p2864
(dp2865
V\u0432\u0435\u0447\u043d\u044b\u0439
p2866
(dp2867
V\u0433\u0430\u0440\u043c\u043e\u043d\u0438\u044f
p2868
(dp2869
g7
I291
sssssV\u0442\u044f\u0436\u0435\u043b\u043e
p2870
(dp2871
V\u0443\u043c\u0438\u0440\u0430\u0442\u044c
p2872
(dp2873
V\u0445\u043e\u0440\u043e\u0448\u043e
p2874
(dp2875
V\u0443\u043c\u0438\u0440\u0430\u0442\u044c
p2876
(dp2877
g7
I319
sssssV\u043f\u043e\u0446\u0435\u043b\u043e\u0432\u0430\u0442\u044c
p2878
(dp2879
V\u0443
p2880
(dp2881
V\u0437\u043b\u043e\u0434\u0435\u0439
p2882
(dp2883
V\u0440\u0443\u0447\u043a\u0430
p2884
(dp2885
g7
I247
sssssV\u0442\u0440\u0443\u0434
p2886
(dp2887
V\u0438
p2888
(dp2889
V\u0442\u0432\u043e\u0440\u0447\u0435\u0441\u0442\u0432\u043e
p2890
(dp2891
V\u0437\u0430\u043a\u043e\u043d
p2892
(dp2893
g7
I315
sssssV\u0441\u0435\u0433\u043e\u0434\u043d\u044f
p2894
(dp2895
V\u044f
p2896
(dp2897
V\u0432
p2898
(dp2899
V\u043c\u0435\u0440\u043b\u0435\u0445\u043b\u044e\u043d\u0434\u0438\u044f
p2900
(dp2901
g7
I273
sssssV\u043f\u043e\u044d\u0442
p2902
(dp2903
V\u0432\u0441\u0435\u0433\u0434\u0430
p2904
(dp2905
V\u043f\u0440\u0430\u0432\u044b\u0439
p2906
(dp2907
g7
I368
sssV\u0434\u043b\u044f
p2908
(dp2909
V\u043f\u0440\u043e\u0438\u0437\u0432\u043e\u0434\u0438\u0442\u0435\u043b\u044c
p2910
(dp2911
g7
I495
ssssV\u0441\u0442\u0438\u043b\u044c
p2912
(dp2913
V\u0431\u044b\u0432\u0430\u0442\u044c
p2914
(dp2915
V\u0440\u0430\u0437\u043d\u044b\u0439
p2916
(dp2917
V\u043b\u0443\u0435\u0432
p2918
(dp2919
g7
I288
sssssV\u043d\u0435\u043f\u0440\u043e\u0442\u0438\u0432\u043b\u0435\u043d\u0438\u0435
p2920
(dp2921
V\u0437\u043b\u043e
p2922
(dp2923
V\u043d\u0430\u0441\u0438\u043b\u0438\u0435
p2924
(dp2925
g7
I559
ssssV\u0441\u0431\u044b\u0432\u0430\u0442\u044c\u0441\u044f
p2926
(dp2927
V\u043c\u0435\u0447\u0442\u0430
p2928
(dp2929
V\u0438\u0434\u0438\u043e\u0442
p2930
(dp2931
g7
I470
ssssV\u0437\u043d\u043e\u0439\u043d\u044b\u0439
p2932
(dp2933
V\u0436\u0435\u043d\u0449\u0438\u043d\u0430
p2934
(dp2935
V\u043c\u0435\u0447\u0442\u0430
p2936
(dp2937
V\u043f\u043e\u044d\u0442
p2938
(dp2939
g7
I117
sssssV\u0445\u043e\u0442\u0435\u0442\u044c\u0441\u044f
p2940
(dp2941
V\u043f\u0435\u0440\u0435\u0445\u043e\u0442\u0430\u0442\u044c\u0441\u044f
p2942
(dp2943
V\u043f\u0435\u0440\u0435\u0442\u0435\u0440\u043f\u0435\u0442\u044c\u0441\u044f
p2944
(dp2945
g7
I472
ssssV\u0442\u0432\u043e\u0439
p2946
(dp2947
V\u043c\u043e\u0439
p2948
(dp2949
V\u043d\u0435
p2950
(dp2951
V\u043f\u043e\u043d\u0438\u043c\u0430\u0442\u044c
p2952
(dp2953
g7
I308
sssssV\u0434\u0435\u0440\u0435\u0432\u043d\u044f
p2954
(dp2955
V\u043b\u0435\u0442\u043e
p2956
(dp2957
V\u0440\u0430\u0439
p2958
(dp2959
g7
I422
ssssV\u043c\u043e\u043b\u0447\u0430\u0442\u044c
p2960
(dp2961
V\u043f\u0440\u043e\u043a\u043b\u044f\u0442\u044b\u0439
p2962
(dp2963
V\u0441\u0442\u0440\u0443\u043d\u0430
p2964
(dp2965
g7
I485
ssssV\u0433\u043e\u043b\u043e\u0434\u0430\u0442\u044c
p2966
(dp2967
V\u0447\u0442\u043e\u0431
p2968
(dp2969
V\u043e\u043d\u0438
p2970
(dp2971
V\u043f\u0438\u0440\u043e\u0432\u0430\u0442\u044c
p2972
(dp2973
g7
I79
sssssV\u043e\u0441\u0435\u0442\u0440\u0438\u043d\u0430
p2974
(dp2975
V\u0432\u0442\u043e\u0440\u043e\u0439
p2976
(dp2977
V\u0441\u0432\u0435\u0436\u0435\u0441\u0442\u044c
p2978
(dp2979
g7
I389
ssssV\u043c\u0430\u0433
p2980
(dp2981
V\u0438
p2982
(dp2983
V\u0432\u043e\u043b\u0448\u0435\u0431\u043d\u0438\u043a
p2984
(dp2985
g7
I555
ssssV\u0441
p2986
(dp2987
V\u043d\u0430\u0441\u043c\u0435\u0448\u043a\u0430
p2988
(dp2989
V\u043e\u0442\u0432\u0435\u0447\u0430\u0442\u044c
p2990
(dp2991
V\u0436\u0443\u0436\u0430
p2992
(dp2993
g7
I271
sssssV\u0438\u0441\u043a\u0443\u0441\u0441\u0442\u0432\u043e
p2994
(dp2995
V\u0432\u0441\u0435\u0433\u0434\u0430
p2996
(dp2997
V\u0441\u043e\u0432\u0440\u0435\u043c\u0435\u043d\u043d\u044b\u0439
p2998
(dp2999
g7
I443
ssssV\u0431\u043e\u043b\u044f\u0449\u0438\u0439
p3000
(dp3001
V\u0434\u0443\u0445
p3002
(dp3003
V\u0432\u0440\u0430\u0447\u0435\u0432\u0430\u0442\u044c
p3004
(dp3005
V\u043f\u0435\u0441\u043d\u043e\u043f\u0435\u043d\u0438\u0435
p3006
(dp3007
g7
I20
sssssV\u0441\u0435\u0440\u0434\u0446\u0435
p3008
(dp3009
V\u0432\u0435\u0441\u044c
p3010
(dp3011
V\u0440\u0443\u0441\u044c
p3012
(dp3013
V\u0441\u0432\u044f\u0442\u043e\u0439
p3014
(dp3015
g7
I277
sssssV\u043f\u0435\u0448\u0435\u0445\u043e\u0434
p3016
(dp3017
V\u043d\u0430\u0434\u043e
p3018
(dp3019
V\u043b\u044e\u0431\u0438\u0442\u044c
p3020
(dp3021
g7
I461
ssssV\u043a\u043e\u043c\u0430\u043d\u0434\u043e\u0432\u0430\u0442\u044c
p3022
(dp3023
V\u043f\u0430\u0440\u0430\u0434
p3024
(dp3025
V\u0431\u044b\u0442\u044c
p3026
(dp3027
V\u044f
p3028
(dp3029
g7
I144
sssssV\u0441\u043e\u0431\u0430\u043a\u0430
p3030
(dp3031
V\u0441\u043e\u0431\u0430\u0447\u0438\u0439
p3032
(dp3033
V\u0441\u043c\u0435\u0440\u0442\u044c
p3034
(dp3035
g7
I500
ssssV\u0432\u0435\u0441\u0435\u043b\u044b\u0439
p3036
(dp3037
V\u0438\u043c\u044f
p3038
(dp3039
V\u043f\u0443\u0448\u043a\u0438\u043d
p3040
(dp3041
g7
I383
ssssV\u043f\u043e\u0441\u043c\u043e\u0442\u0440\u0435\u0442\u044c
p3042
(dp3043
V\u0440\u0443\u0431\u043b\u044c
p3044
(dp3045
V\u043f\u043e\u0434\u0430\u0440\u0438\u0442\u044c
p3046
(dp3047
g7
I499
ssssV\u0447\u0435\u043b\u043e
p3048
(dp3049
V\u043a\u0430\u043a
p3050
(dp3051
V\u0447\u0435\u0440\u0435\u043f
p3052
(dp3053
V\u0433\u043e\u043b\u044b\u0439
p3054
(dp3055
g7
I338
sssssV\u043f\u043e\u043f\u043e\u043b\u044c\u0437\u043e\u0432\u0430\u0442\u044c\u0441\u044f
p3056
(dp3057
V\u043d\u0430\u0441\u0447\u0435\u0442
p3058
(dp3059
V\u043a\u043b\u0443\u0431\u043d\u0438\u0447\u043a\u0430
p3060
(dp3061
g7
I408
ssssV\u043d\u0435\u0442\u0443
p3062
(dp3063
V\u043d\u0438\u043a\u0430\u043a\u043e\u0439
p3064
(dp3065
V\u043c\u043e\u0439
p3066
(dp3067
V\u0432\u043e\u0437\u043c\u043e\u0436\u043d\u043e\u0441\u0442\u044c
p3068
(dp3069
g7
I210
sssssV\u043f\u0440\u043e\u0434\u0430\u0432\u0430\u0442\u044c
p3070
(dp3071
V\u0442\u043e\u0432\u0430\u0440
p3072
(dp3073
V\u043a\u0443\u043f\u0435\u0446
p3074
(dp3075
g7
I498
ssssV\u0434\u0435\u0432\u0438\u0446\u0430
p3076
(dp3077
V\u043a\u0440\u0430\u0441\u0430\u0432\u0438\u0446\u0430
p3078
(dp3079
V\u0434\u0443\u0448\u0435\u043d\u044c\u043a\u0430
p3080
(dp3081
V\u043f\u043e\u0434\u0440\u0443\u0436\u0435\u043d\u044c\u043a\u0430
p3082
(dp3083
g7
I87
sssssV\u043c\u044b
p3084
(dp3085
V\u043d\u0435
p3086
(dp3087
V\u0440\u0430\u0431
p3088
(dp3089
g7
I593
ssV\u0442\u0435\u043d\u043e\u0440
p3090
(dp3091
g7
I384
sssV\u043f\u043e\u043f\u0430\u0434\u0430\u0442\u044c
p3092
(dp3093
V\u0432
p3094
(dp3095
V\u0437\u0430\u043f\u0435\u043d\u0434\u044e
p3096
(dp3097
g7
I183
ssssV\u043d\u0430
p3098
(dp3099
V\u0431\u0430\u0431\u0430
p3100
(dp3101
V\u043f\u0440\u043e\u043c\u0435\u043d\u0438\u0432\u0430\u0442\u044c
p3102
(dp3103
g7
I180
ssssV\u043b\u0435\u043d\u0438\u0432\u044b\u0439
p3104
(dp3105
V\u0438
p3106
(dp3107
V\u043d\u0435\u043b\u044e\u0431\u043e\u043f\u044b\u0442\u043d\u044b\u0439
p3108
(dp3109
g7
I179
ssssV\u0437\u0430
p3110
(dp3111
V\u0441\u043c\u0435\u0445
p3112
(dp3113
g7
I376
sssV\u0443\u043d\u0438\u0447\u0442\u043e\u0436\u0430\u0442\u044c
p3114
(dp3115
V\u0437\u043d\u0430\u043a
p3116
(dp3117
V\u043f\u0440\u0435\u043f\u0438\u043d\u0430\u043d\u0438\u0435
p3118
(dp3119
g7
I185
ssssV\u0440\u0430\u0437\u0443\u0447\u0438\u0432\u0430\u0442\u044c\u0441\u044f
p3120
(dp3121
V\u043d\u0438\u0449\u0438\u0439
p3122
(dp3123
V\u043f\u043e\u0434\u0430\u0432\u0430\u0442\u044c
p3124
(dp3125
g7
I184
ssssV\u0437\u0432\u0435\u0437\u0434\u0430
p3126
(dp3127
V\u043a\u0440\u043e\u0442\u043a\u0438\u0439
p3128
(dp3129
V\u0441\u0438\u044f\u0442\u044c
p3130
(dp3131
g7
I178
ssssV\u0432\u044b\u043c\u0438\u0440\u0430\u0442\u044c
p3132
(dp3133
V\u043f\u043e
p3134
(dp3135
V\u043f\u043e\u0440\u044f\u0434\u043e\u043a
p3136
(dp3137
g7
I177
ssssV\u043e\u0442\u0434\u044b\u0445\u0430\u0442\u044c
p3138
(dp3139
V\u043c\u044b
p3140
(dp3141
V\u043e\u0442\u0434\u044b\u0445\u0430\u0442\u044c
p3142
(dp3143
g7
I182
ssssV\u043d\u0435\u043d\u0430\u0432\u0438\u0441\u0442\u043d\u044b\u0439
p3144
(dp3145
V\u0442\u0438\u0440\u0430\u043d
p3146
(dp3147
V\u043a\u043e\u0440\u043e\u043d\u0430
p3148
(dp3149
g7
I181
sssssV\u0441\u0442\u0430\u0440\u044b\u0439
p3150
(dp3151
V\u043a\u0430\u043c\u0435\u043d\u044c
p3152
(dp3153
V\u0435\u0432\u0440\u043e\u043f\u0430
p3154
(dp3155
g7
I441
ssssV\u0438\u0441\u0442\u043e\u0440\u0438\u044f
p3156
(dp3157
V\u043d\u0430\u0440\u043e\u0434
p3158
(dp3159
V\u043f\u0440\u0438\u043d\u0430\u0434\u043b\u0435\u0436\u0430\u0442\u044c
p3160
(dp3161
V\u043f\u043e\u044d\u0442
p3162
(dp3163
g7
I137
ssV\u0446\u0430\u0440\u044c
p3164
(dp3165
g7
I138
ssssV\u043f\u0440\u0435\u043a\u0440\u0430\u0449\u0430\u0442\u044c
p3166
(dp3167
V\u0442\u0435\u0447\u0435\u043d\u0438\u0435
p3168
(dp3169
V\u0441\u0432\u043e\u0439
p3170
(dp3171
g7
I139
sssssV\u0432\u0435\u044f\u043d\u0438\u0435
p3172
(dp3173
V\u044d\u043f\u043e\u0445\u0430
p3174
(dp3175
V\u0432\u0435\u044f\u043d\u0438\u0435
p3176
(dp3177
V\u044d\u043f\u043e\u0445\u0430
p3178
(dp3179
g7
I50
sssssV\u0433\u0440\u044f\u0441\u0442\u0438
p3180
(dp3181
V\u0441\u043f\u0430\u0441\u0430\u0442\u044c
p3182
(dp3183
V\u0446\u0430\u0440\u044c
p3184
(dp3185
V\u0441\u0443\u0432\u043e\u0440\u043e\u0432
p3186
(dp3187
g7
I85
sssssV\u0438\u0441\u043a\u0443\u0441\u0441\u0442\u0432\u043e\u0432\u0435\u0434
p3188
(dp3189
V\u0432
p3190
(dp3191
V\u0448\u0442\u0430\u0442\u0441\u043a\u043e\u0435
p3192
(dp3193
g7
I592
ssssV\u0441\u0434\u0435\u043b\u0430\u0442\u044c
p3194
(dp3195
V\u043c\u044b
p3196
(dp3197
V\u043a\u0440\u0430\u0441\u0438\u0432\u043e
p3198
(dp3199
g7
I493
ssssV\u0432\u043e\u0437\u0432\u0440\u0430\u0449\u0430\u0442\u044c\u0441\u044f
p3200
(dp3201
V\u043f\u043b\u043e\u0445\u043e\u0439
p3202
(dp3203
V\u043f\u0440\u0438\u043c\u0435\u0442\u0430
p3204
(dp3205
g7
I393
ssssV\u0441\u043f\u043b\u0435\u0442\u043d\u044f
p3206
(dp3207
V\u0441\u0435\u044f\u0442\u044c
p3208
(dp3209
V\u0441\u043e\u0440\u043e\u043a\u0430
p3210
(dp3211
V\u043a\u043e\u0440\u043e\u0442\u043a\u043e\u0445\u0432\u043e\u0441\u0442\u044b\u0439
p3212
(dp3213
g7
I285
sssssV\u0443\u0441\u0435\u0440\u0434\u0438\u0435
p3214
(dp3215
V\u0432\u0441\u0435
p3216
(dp3217
V\u043f\u0440\u0435\u0432\u043e\u0437\u043c\u043e\u0433\u0430\u0442\u044c
p3218
(dp3219
g7
I505
ssssV\u043c\u0435\u0436\u0434\u0443
p3220
(dp3221
V\u043c\u043e\u043b\u043e\u0442
p3222
(dp3223
V\u0438
p3224
(dp3225
V\u043d\u0430\u043a\u043e\u0432\u0430\u043b\u044c\u043d\u044f
p3226
(dp3227
g7
I168
sssssV\u0443\u0440\u0430\u043b
p3228
(dp3229
V\u043e\u043f\u043e\u0440\u043d\u044b\u0439
p3230
(dp3231
V\u043a\u0440\u0430\u0439
p3232
(dp3233
V\u0434\u0435\u0440\u0436\u0430\u0432\u0430
p3234
(dp3235
g7
I328
sssssV\u0443\u043a\u0430\u043b\u044b\u0432\u0430\u0442\u044c\u0441\u044f
p3236
(dp3237
V\u0438
p3238
(dp3239
V\u0437\u0430\u0431\u044b\u0432\u0430\u0442\u044c\u0441\u044f
p3240
(dp3241
g7
I399
ssssV\u043c\u0435\u0436\u0434\u0443\u043f\u043b\u0430\u043d\u0435\u0442\u043d\u044b\u0439
p3242
(dp3243
V\u0448\u0430\u0445\u043c\u0430\u0442\u043d\u044b\u0439
p3244
(dp3245
V\u043a\u043e\u043d\u0433\u0440\u0435\u0441\u0441
p3246
(dp3247
g7
I457
ssssV\u043d\u0430\u0443\u043a\u0430
p3248
(dp3249
V\u0441\u043e\u0434\u0440\u0443\u0436\u0435\u0441\u0442\u0432\u043e
p3250
(dp3251
V\u0447\u0435\u043b\u043e\u0432\u0435\u043a
p3252
(dp3253
V\u0440\u0430\u0437\u0440\u0443\u0448\u0430\u0442\u044c
p3254
(dp3255
g7
I195
ssssV\u0441\u0442\u0440\u0430\u0441\u0442\u044c
p3256
(dp3257
V\u043d\u0435\u0436\u043d\u044b\u0439
p3258
(dp3259
g7
I524
ssssV\u0434\u0440\u0430\u043c\u0430
p3260
(dp3261
V\u0440\u043e\u0436\u0434\u0430\u0442\u044c\u0441\u044f
p3262
(dp3263
V\u043d\u0430
p3264
(dp3265
V\u043f\u043b\u043e\u0449\u0430\u0434\u044c
p3266
(dp3267
g7
I95
sssssV\u0436\u0435\u0440\u0442\u0432\u0430
p3268
(dp3269
V\u0441\u0430\u043f\u043e\u0433
p3270
(dp3271
V\u0432\u0441\u043c\u044f\u0442\u043a\u0443
p3272
(dp3273
g7
I574
ssssV\u0434\u0443\u0448\u0430
p3274
(dp3275
V\u043c\u043e\u0439
p3276
(dp3277
V\u044d\u043b\u0438\u0437\u0438\u0443\u043c
p3278
(dp3279
V\u0442\u0435\u043d\u044c
p3280
(dp3281
g7
I103
ssssV\u0432\u043b\u0435\u0447\u044c\u0441\u044f
p3282
(dp3283
V\u0432
p3284
(dp3285
V\u043f\u0440\u0438\u043c\u0438\u0442\u0438\u0432
p3286
(dp3287
g7
I102
ssssV\u0436\u0434\u0430\u0442\u044c
p3288
(dp3289
V\u043a\u0442\u043e-\u043d\u0438\u0431\u0443\u0434\u044c
p3290
(dp3291
g7
I525
ssssV\u0441\u0446\u0435\u043d\u0430
p3292
(dp3293
V\u0443
p3294
(dp3295
V\u0444\u043e\u043d\u0442\u0430\u043d
p3296
(dp3297
g7
I521
ssssV\u0438\u0441\u0442\u0435\u043a\u0430\u0442\u044c
p3298
(dp3299
V\u043a\u043b\u044e\u043a\u0432\u0435\u043d\u043d\u044b\u0439
p3300
(dp3301
V\u0441\u043e\u043a
p3302
(dp3303
g7
I380
ssssV\u0432\u043f\u0435\u0440\u0435\u0434
p3304
(dp3305
V\u0440\u0435\u0431\u044f\u0442\u0430
p3306
(dp3307
V\u0441\u043c\u0435\u0440\u0442\u044c
p3308
(dp3309
V\u043d\u0435\u0442
p3310
(dp3311
g7
I62
ssssV\u0432\u043f\u0435\u0440\u0435\u0434
p3312
(dp3313
V\u043c\u043e\u0439
p3314
(dp3315
V\u0438\u0441\u0442\u043e\u0440\u0438\u0439
p3316
(dp3317
g7
I61
sssssV\u0432\u044b\u0440\u0430\u0441\u0442\u0430\u0442\u044c
p3318
(dp3319
V\u0441\u0430\u0448\u0430
p3320
(dp3321
V\u0443\u0437\u043d\u0430\u0432\u0430\u0442\u044c
p3322
(dp3323
g7
I497
ssssV\u0432\u043e\u043b\u0448\u0435\u0431\u043d\u044b\u0439
p3324
(dp3325
V\u0441\u0438\u043b\u0430
p3326
(dp3327
V\u043f\u0435\u0441\u043d\u043e\u043f\u0435\u043d\u0438\u0435
p3328
(dp3329
g7
I518
sssV\u043a\u043e\u0440\u043e\u0431\u043e\u0447\u043a\u0430
p3330
(dp3331
V\u0441\u0446\u0435\u043d\u0430
p3332
(dp3333
g7
I388
ssssV\u0437\u0430\u0433\u043e\u043b\u044f\u0442\u044c\u0441\u044f
p3334
(dp3335
V\u0438
p3336
(dp3337
V\u043e\u0431\u043d\u0430\u0436\u0430\u0442\u044c\u0441\u044f
p3338
(dp3339
g7
I436
ssssV\u0436\u0435\u043d\u0449\u0438\u043d\u0430
p3340
(dp3341
V\u0432\u0430\u0448
p3342
(dp3343
V\u0432\u0435\u043b\u0438\u0447\u0435\u0441\u0442\u0432\u043e
p3344
(dp3345
g7
I501
ssssV\u0438\u0441\u043f\u043e\u0440\u0442\u0438\u0442\u044c
p3346
(dp3347
V\u043f\u0435\u0441\u043d\u044f
p3348
(dp3349
V\u0434\u0443\u0440\u0430
p3350
(dp3351
V\u0440\u0430\u043a
p3352
(dp3353
g7
I136
sssssV\u043e\u0432\u0435\u0441
p3354
(dp3355
V\u043d\u044b\u043d\u0447\u0435
p3356
(dp3357
V\u0434\u043e\u0440\u043e\u0433\u0430
p3358
(dp3359
g7
I452
ssssV\u0441\u0442\u0440\u0430\u0448\u043d\u043e
p3360
(dp3361
V\u0430\u0436
p3362
(dp3363
V\u0436\u0443\u0442\u044c
p3364
(dp3365
g7
I398
ssssV\u043f\u043e\u043b\u0438\u0442\u0440\u0430\u0431\u043e\u0442\u0430
p3366
(dp3367
V\u0442\u0440\u0443\u0434\u043d\u044b\u0439
p3368
(dp3369
V\u0440\u0430\u0431\u043e\u0442\u0430
p3370
(dp3371
g7
I546
ssssV\u043d\u0430\u0434\u0435\u0436\u0434\u0430
p3372
(dp3373
V\u043a\u0440\u043e\u0442\u043a\u0438\u0439
p3374
(dp3375
V\u043f\u043e\u0441\u043b\u0430\u043d\u043d\u0438\u0446\u0430
p3376
(dp3377
V\u043d\u0435\u0431\u043e
p3378
(dp3379
g7
I193
sssssV\u0441\u0442\u0440\u043e\u0433\u043e\u0441\u0442\u044c
p3380
(dp3381
V\u0441\u0442\u0440\u043e\u0433\u043e\u0441\u0442\u044c
p3382
(dp3383
V\u0438
p3384
(dp3385
V\u0441\u0442\u0440\u043e\u0433\u043e\u0441\u0442\u044c
p3386
(dp3387
g7
I294
sssssV\u0434\u0443\u0431\u0438\u043d\u043a\u0430
p3388
(dp3389
V\u043f\u0435\u0442\u0440
p3390
(dp3391
V\u0432\u0435\u043b\u0438\u043a\u0438\u0439
p3392
(dp3393
g7
I589
ssssV\u0441\u0442\u0430\u0440\u0438\u043d\u043d\u044b\u0439
p3394
(dp3395
V\u0447\u0435\u043b\u043e\u0432\u0435\u043a
p3396
(dp3397
V\u043c\u043e\u0439
p3398
(dp3399
V\u043e\u0442\u0435\u0446
p3400
(dp3401
g7
I287
sssssV\u043f\u043e\u043b\u043d\u044b\u0439
p3402
(dp3403
V\u043f\u043e\u043b\u043d\u044b\u0439
p3404
(dp3405
V\u0447\u0443\u0434\u043e
p3406
(dp3407
V\u043f\u0440\u0438\u0440\u043e\u0434\u0430
p3408
(dp3409
g7
I241
sssssV\u0442\u0430\u043a\u0441\u0438
p3410
(dp3411
V\u0441\u0432\u043e\u0431\u043e\u0434\u043d\u044b\u0439
p3412
(dp3413
V\u043f\u0440\u043e\u0441\u0438\u0442\u044c
p3414
(dp3415
V\u0441\u0430\u0434\u0438\u0442\u044c\u0441\u044f
p3416
(dp3417
g7
I306
sssssV\u0438\u0434\u0435\u044f
p3418
(dp3419
V\u043f\u043e\u043f\u0430\u0434\u0430\u0442\u044c
p3420
(dp3421
V\u043d\u0430
p3422
(dp3423
V\u0443\u043b\u0438\u0446\u0430
p3424
(dp3425
g7
I131
sssssV\u043f\u043e\u0441\u0432\u044f\u0449\u0435\u043d\u0438\u0435
p3426
(dp3427
V\u0438
p3428
(dp3429
V\u0432\u043e\u0441\u043f\u043e\u043c\u0438\u043d\u0430\u043d\u0438\u0435
p3430
(dp3431
V\u0434\u0440\u044f\u043d\u044c
p3432
(dp3433
g7
I244
sssssV\u0443\u043a\u043e\u0440
p3434
(dp3435
V\u043d\u0435\u0432\u0435\u0436\u0434\u0430
p3436
(dp3437
V\u0443\u043a\u043e\u0440
p3438
(dp3439
V\u0447\u0435\u043b\u043e\u0432\u0435\u043a
p3440
(dp3441
g7
I324
sssssV\u0437\u0430\u0433\u0430\u0434\u043e\u0447\u043d\u044b\u0439
p3442
(dp3443
V\u0440\u0443\u0441\u0441\u043a\u0438\u0439
p3444
(dp3445
V\u0434\u0443\u0448\u0430
p3446
(dp3447
g7
I591
ssssV\u0432\u0441\u044f\u043a\u0438\u0439
p3448
(dp3449
V\u0441\u043e\u0437\u043d\u0430\u043d\u0438\u0435
p3450
(dp3451
V\u0431\u043e\u043b\u0435\u0437\u043d\u044c
p3452
(dp3453
g7
I438
ssssV\u043c\u043e\u043b\u0447\u0430\u043b\u0438\u043d
p3454
(dp3455
V\u0431\u043b\u0430\u0436\u0435\u043d\u0441\u0442\u0432\u043e\u0432\u0430\u0442\u044c
p3456
(dp3457
V\u043d\u0430
p3458
(dp3459
V\u0441\u0432\u0435\u0442
p3460
(dp3461
g7
I174
sssssV\u043f\u043e\u0439\u0442\u0438
p3462
(dp3463
V\u043f\u0438\u0441\u0430\u0442\u044c
p3464
(dp3465
V\u0433\u0443\u0431\u0435\u0440\u043d\u0438\u044f
p3466
(dp3467
g7
I409
ssssV\u0441\u0430\u043c\u044b\u0439
p3468
(dp3469
V\u0447\u0435\u043b\u043e\u0432\u0435\u0447\u043d\u044b\u0439
p3470
(dp3471
V\u0447\u0435\u043b\u043e\u0432\u0435\u043a
p3472
(dp3473
g7
I490
ssssV\u043a\u0430\u043f\u0438\u0442\u0430\u043b
p3474
(dp3475
V\u0435\u0433\u043e
p3476
(dp3477
V\u043f\u0440\u0435\u043f\u043e\u0445\u0430\u0431\u0438\u0435
p3478
(dp3479
g7
I488
ssssV\u0434\u0435\u043d\u044c
p3480
(dp3481
V\u0430\u043b\u0435\u043a\u0441\u0430\u043d\u0434\u0440\u043e\u0432
p3482
(dp3483
V\u043f\u0440\u0435\u043a\u0440\u0430\u0441\u043d\u044b\u0439
p3484
(dp3485
V\u043d\u0430\u0447\u0430\u043b\u043e
p3486
(dp3487
g7
I89
ssssV\u043e\u0442\u043a\u0440\u044b\u0442\u044b\u0439
p3488
(dp3489
V\u0443\u0431\u0438\u0439\u0441\u0442\u0432\u043e
p3490
(dp3491
g7
I427
ssssV\u0441\u043b\u0430\u0432\u0430
p3492
(dp3493
V\u0441\u0432\u044f\u0442\u043e\u0439
p3494
(dp3495
V\u0442\u0440\u0443\u0434
p3496
(dp3497
g7
I478
ssssV\u043f\u0438\u0441\u0430\u0442\u0435\u043b\u044c
p3498
(dp3499
V\u043a\u043e\u0442\u043e\u0440\u044b\u0439
p3500
(dp3501
V\u0437\u0430\u0437\u043d\u0430\u0432\u0430\u0442\u044c\u0441\u044f
p3502
(dp3503
g7
I414
ssssV\u0441\u0443\u0435\u0442\u0430
p3504
(dp3505
V\u0432\u043e\u043a\u0440\u0443\u0433
p3506
(dp3507
V\u0434\u0438\u0432\u0430\u043d
p3508
(dp3509
g7
I551
ssssV\u043f\u0440\u0438\u0438\u0434\u0443\u0442
p3510
(dp3511
V\u0434\u0435\u043d\u044c
p3512
(dp3513
V\u043f\u043e\u0441\u043b\u0435\u0434\u043d\u0438\u0439
p3514
(dp3515
V\u0437\u0430\u043f\u0443\u0441\u0442\u0435\u043d\u0438\u0435
p3516
(dp3517
g7
I254
sssssV\u043f\u043e\u0447\u0435\u043c
p3518
(dp3519
V\u043e\u043f\u0438\u0443\u043c
p3520
(dp3521
V\u0434\u043b\u044f
p3522
(dp3523
V\u043d\u0430\u0440\u043e\u0434
p3524
(dp3525
g7
I248
sssssV\u043a\u0440\u0430\u0441\u043e\u0442\u0430
p3526
(dp3527
V\u0441\u043f\u0430\u0441\u0430\u0442\u044c
p3528
(dp3529
V\u043c\u0438\u0440
p3530
(dp3531
g7
I440
ssssV\u0432\u0441\u0435
p3532
(dp3533
V\u0440\u0430\u0441\u0445\u0438\u0449\u0430\u0442\u044c
p3534
(dp3535
V\u043f\u0440\u0435\u0434\u0430\u0432\u0430\u0442\u044c
p3536
(dp3537
V\u043f\u0440\u043e\u0434\u0430\u0432\u0430\u0442\u044c
p3538
(dp3539
g7
I65
ssssV\u043a\u0430\u043a
p3540
(dp3541
V\u043c\u0443\u0445\u0430
p3542
(dp3543
V\u0432\u044b\u0437\u0434\u043e\u0440\u0430\u0432\u043b\u0438\u0432\u0430\u0442\u044c
p3544
(dp3545
g7
I64
ssssV\u0432\u0440\u0430\u0442\u044c
p3546
(dp3547
V\u043a\u0430\u043b\u0435\u043d\u0434\u0430\u0440\u044c
p3548
(dp3549
g7
I423
sssV\u0432\u043e\u043b\u043d\u043e\u0432\u0430\u0442\u044c
p3550
(dp3551
V\u043d\u0435\u0436\u043d\u044b\u0439
p3552
(dp3553
V\u0443\u043c
p3554
(dp3555
g7
I63
sssssV\u043b\u044e\u0431\u043e\u0432\u043d\u0438\u0446\u0430
p3556
(dp3557
V\u043a\u043e\u0442\u043e\u0440\u044b\u0439
p3558
(dp3559
V\u0432\u044b\u043b\u044e\u0431\u043b\u044f\u0442\u044c
p3560
(dp3561
V\u0440\u043e\u0442\u0448\u0438\u043b\u044c\u0434
p3562
(dp3563
g7
I160
sssssV\u043a\u0443\u0440\u0438\u0446\u0430
p3564
(dp3565
V\u0432\u044b\u043f\u0443\u0441\u043a\u0430\u0442\u044c
p3566
(dp3567
V\u043d\u0435\u043a\u0443\u0434\u0430
p3568
(dp3569
g7
I558
ssssV\u0441\u043e\u043f\u0440\u044f\u0436\u0435\u043d\u0438\u0435
p3570
(dp3571
V\u0434\u0430\u043b\u0435\u043a\u043e\u0432\u0430\u0442\u044b\u0439
p3572
(dp3573
V\u0438\u0434\u0435\u044f
p3574
(dp3575
g7
I484
ssssV\u0440\u043e\u043c\u0430\u043d\u043e\u0432
p3576
(dp3577
V\u043e\u0442\u0435\u0447\u0435\u0441\u0442\u0432\u043e
p3578
(dp3579
V\u043d\u0430\u0434\u0435\u0436\u0434\u0430
p3580
(dp3581
g7
I520
ssssV\u0432\u043d\u0443\u0442\u0440\u0435\u043d\u043d\u0438\u0439
p3582
(dp3583
V\u0441\u043a\u043b\u043e\u043d\u0435\u043d\u0438\u0435
p3584
(dp3585
V\u0441\u043b\u043e\u0432\u043e
p3586
(dp3587
g7
I573
sssV\u044d\u043c\u0438\u0433\u0440\u0430\u043d\u0442
p3588
(dp3589
V\u0432\u043d\u0443\u0442\u0440\u0435\u043d\u043d\u0438\u0439
p3590
(dp3591
V\u044d\u043c\u0438\u0433\u0440\u0430\u0446\u0438\u044f
p3592
(dp3593
g7
I55
sssssV\u0436\u0430\u043b\u043e
p3594
(dp3595
V\u043c\u0443\u0434\u0440\u044b\u0439
p3596
(dp3597
V\u0437\u043c\u0435\u044f
p3598
(dp3599
g7
I512
ssssV\u0437\u043c\u0435\u044f
p3600
(dp3601
V\u0441\u0435\u0440\u0434\u0435\u0447\u043d\u044b\u0439
p3602
(dp3603
V\u0443\u0433\u0440\u044b\u0437\u0435\u043d\u0438\u0435
p3604
(dp3605
g7
I506
ssssV\u0432
p3606
(dp3607
V\u043e\u0442\u0434\u0430\u043b\u0435\u043d\u0438\u0435
p3608
(dp3609
V\u0440\u0435\u044f\u0442\u044c
p3610
(dp3611
V\u043a\u0432\u0430\u0440\u0442\u0430\u043b\u044c\u043d\u044b\u0439
p3612
(dp3613
g7
I32
ssssV\u043c\u043e\u0441\u043a\u0432\u0430
p3614
(dp3615
V\u0434\u0432\u0430
p3616
(dp3617
V\u0443\u043d\u0438\u0432\u0435\u0440\u0441\u0438\u0442\u0435\u0442
p3618
(dp3619
g7
I30
ssssV\u043a\u0430\u043a\u043e\u0439
p3620
(dp3621
V\u043f\u043e\u043b\u043a
p3622
(dp3623
V\u0441\u043b\u0443\u0436\u0438\u0442\u044c
p3624
(dp3625
g7
I27
ssssV\u0442\u043e\u0442
p3626
(dp3627
V\u0431\u0430\u0441\u043d\u043e\u0441\u043b\u043e\u0432\u043d\u044b\u0439
p3628
(dp3629
V\u0433\u043e\u0434
p3630
(dp3631
g7
I35
ssssV\u0442\u0440\u0438\u0448\u043a\u0438\u043d
p3632
(dp3633
V\u043a\u0430\u0444\u0442\u0430\u043d
p3634
(dp3635
V\u0449\u0435\u0433\u043e\u043b\u044f\u0442\u044c
p3636
(dp3637
g7
I36
ssssV\u0433\u0440\u0435\u0446\u0438\u044f
p3638
(dp3639
V\u0432\u0435\u0441\u044c
p3640
(dp3641
V\u0431\u044b\u0442\u044c
p3642
(dp3643
g7
I26
ssssV\u043f\u043e\u044d\u0437\u0438\u044f
p3644
(dp3645
V\u043f\u043e\u0440\u0430
p3646
(dp3647
V\u044d\u0441\u0442\u0440\u0430\u0434\u0430
p3648
(dp3649
g7
I34
ssssV\u0445\u043e\u0440\u043e\u0448\u0438\u0439
p3650
(dp3651
V\u0434\u043e\u043c
p3652
(dp3653
V\u0444\u0438\u043b\u0430\u0434\u0435\u043b\u044c\u0444\u0438\u044f
p3654
(dp3655
g7
I37
ssssV\u043f\u043e\u043b\u0438\u0442\u0438\u043a\u0430
p3656
(dp3657
V\u0432\u043d\u0435
p3658
(dp3659
V\u043f\u0430\u0440\u0442\u0438\u044f
p3660
(dp3661
g7
I33
ssssV\u0447\u0438\u043d
p3662
(dp3663
V\u043c\u044b
p3664
(dp3665
V\u043d\u0435\u0431\u043e\u043b\u044c\u0448\u043e\u0439
p3666
(dp3667
g7
I38
ssssV\u043c\u0438\u043d\u0443\u0442\u0430
p3668
(dp3669
V\u0436\u0438\u0437\u043d\u044c
p3670
(dp3671
V\u0442\u0440\u0443\u0434\u043d\u044b\u0439
p3672
(dp3673
g7
I29
ssssV\u043b\u0438\u0442\u0435\u0440\u0430\u0442\u0443\u0440\u0430
p3674
(dp3675
V\u043f\u043e\u043f\u0435\u0440\u0435\u0442\u044c
p3676
(dp3677
V\u0447\u0438\u0442\u0430\u0442\u0435\u043b\u044c
p3678
(dp3679
g7
I28
ssssV\u0431\u0430\u043d\u0430\u043d\u043e\u0432\u043e-\u043b\u0438\u043c\u043e\u043d\u043d\u044b\u0439
p3680
(dp3681
V\u0441\u0438\u043d\u0433\u0430\u043f\u0443\u0440
p3682
(dp3683
g7
I392
sssV\u043d\u0435\u0431\u043e
p3684
(dp3685
V\u0437\u0430\u043f\u0443\u0441\u043a\u0430\u0442\u044c
p3686
(dp3687
V\u0430\u043d\u0430\u043d\u0430\u0441
p3688
(dp3689
g7
I31
sssssV\u043a\u0440\u043e\u0439
p3690
(dp3691
V\u044d\u0440\u0443\u0434\u0438\u0446\u0438\u044f
p3692
(dp3693
V\u0432\u043e\u043f\u0440\u043e\u0441
p3694
(dp3695
V\u0440\u043e\u0439
p3696
(dp3697
g7
I151
sssssV\u043f\u0443\u0448\u043a\u0438\u043d
p3698
(dp3699
V\u0432
p3700
(dp3701
V\u0440\u043e\u043b\u044c
p3702
(dp3703
V\u043c\u043e\u043d\u0443\u043c\u0435\u043d\u0442
p3704
(dp3705
g7
I260
ssssV\u043d\u0430\u0448
p3706
(dp3707
V\u0432\u0441\u0435
p3708
(dp3709
g7
I425
ssssV\u043e\u043d\u0435\u0433\u0438\u043d
p3710
(dp3711
V\u0436\u0438\u0442\u044c
p3712
(dp3713
V\u0430\u043d\u0430\u0445\u043e\u0440\u0435\u0442
p3714
(dp3715
g7
I527
ssssV\u0438\u0437\u043e\u043b\u0438\u0440\u043e\u0432\u0430\u0442\u044c
p3716
(dp3717
V\u043d\u043e
p3718
(dp3719
V\u0441\u043e\u0445\u0440\u0430\u043d\u044f\u0442\u044c
p3720
(dp3721
g7
I548
ssssV\u043d\u0435\u0436\u043d\u044b\u0439
p3722
(dp3723
V\u0438
p3724
(dp3725
V\u0443\u0434\u0438\u0432\u0438\u0442\u0435\u043b\u044c\u043d\u044b\u0439
p3726
(dp3727
g7
I467
ssssV\u043f\u043e\u0432\u0435\u0441\u0442\u044c
p3728
(dp3729
V\u043f\u0443\u0448\u043a\u0438\u043d
p3730
(dp3731
V\u0433\u043e\u043b
p3732
(dp3733
V\u043a\u0430\u043a-\u0442\u043e
p3734
(dp3735
g7
I235
sssssV\u044d\u0441\u0442\u0435\u0442\u0438\u043a\u0430
p3736
(dp3737
V\u043c\u0430\u0442\u044c
p3738
(dp3739
V\u044d\u0442\u0438\u043a\u0430
p3740
(dp3741
g7
I386
ssssV\u0445\u0440\u0430\u043d\u0438\u0442\u044c
p3742
(dp3743
V\u044f
p3744
(dp3745
V\u043c\u043e\u0439
p3746
(dp3747
V\u0442\u0430\u043b\u0438\u0441\u043c\u0430\u043d
p3748
(dp3749
g7
I336
sssssV\u0432\u0430\u043d\u044c\u043a\u0430
p3750
(dp3751
V\u043a\u043b\u044e\u0447\u043d\u0438\u043a
p3752
(dp3753
V\u0437\u043b\u043e\u0439
p3754
(dp3755
V\u0440\u0430\u0437\u043b\u0443\u0447\u043d\u0438\u043a
p3756
(dp3757
g7
I39
sssssV\u0444\u0430\u043d\u0442\u0430\u0441\u0442\u0438\u043a\u0430
p3758
(dp3759
V\u0431\u043b\u0438\u0436\u043d\u0438\u0439
p3760
(dp3761
V\u043f\u0440\u0438\u0446\u0435\u043b
p3762
(dp3763
g7
I598
ssssV\u0436\u0438\u0437\u043d\u044c
p3764
(dp3765
V\u0438
p3766
(dp3767
V\u043f\u043e\u044d\u0437\u0438\u044f
p3768
(dp3769
V\u043e\u0434\u0438\u043d
p3770
(dp3771
g7
I109
ssssV\u0437\u0430\u043c\u0435\u0447\u0430\u0442\u0435\u043b\u044c\u043d\u044b\u0439
p3772
(dp3773
V\u0447\u0435\u043b\u043e\u0432\u0435\u043a
p3774
(dp3775
g7
I590
sssV\u0431\u044b\u0442\u044c
p3776
(dp3777
V\u0434\u0435\u044f\u043d\u0438\u0435
p3778
(dp3779
g7
I417
ssssV\u044d\u0442\u0430\u043a\u0438\u0439
p3780
(dp3781
V\u0431\u043e\u0433\u0430\u0442\u044b\u0439
p3782
(dp3783
V\u0442\u0435\u043b\u043e
p3784
(dp3785
g7
I563
ssssV\u043f\u043e\u044d\u0437\u0438\u044f
p3786
(dp3787
V\u0441\u0438\u043b\u044c\u043d\u044b\u0439
p3788
(dp3789
V\u0440\u0443\u043a\u0430
p3790
(dp3791
V\u0445\u0440\u043e\u043c\u043e\u0439
p3792
(dp3793
g7
I250
sssssV\u0434\u0430\u0432\u0430\u0442\u044c
p3794
(dp3795
V\u043c\u0438\u043b\u043b\u0438\u043e\u043d
p3796
(dp3797
V\u0434\u0430\u0432\u0430\u0442\u044c
p3798
(dp3799
V\u043c\u0438\u043b\u043b\u0438\u043e\u043d
p3800
(dp3801
g7
I86
ssssV\u044f
p3802
(dp3803
V\u0430\u0442\u043c\u043e\u0441\u0444\u0435\u0440\u0430
p3804
(dp3805
g7
I581
ssssV\u0442\u043e\u043b\u044c\u043a\u043e
p3806
(dp3807
V\u0433\u0440\u044f\u0434\u0443\u0449\u0435\u0435
p3808
(dp3809
V\u043e\u0431\u043b\u0430\u0441\u0442\u044c
p3810
(dp3811
V\u043f\u043e\u044d\u0442
p3812
(dp3813
g7
I311
ssssV\u0441\u0438\u043d\u044c
p3814
(dp3815
V\u0441\u043e\u0441\u0430\u0442\u044c
p3816
(dp3817
V\u0433\u043b\u0430\u0437
p3818
(dp3819
g7
I312
sssssV\u0441\u043c\u0438\u0440\u044f\u0442\u044c\u0441\u044f
p3820
(dp3821
V\u043a\u0430\u0432\u043a\u0430\u0437
p3822
(dp3823
V\u0438\u0434\u0442\u0438
p3824
(dp3825
V\u0435\u0440\u043c\u043e\u043b\u043e\u0432
p3826
(dp3827
g7
I279
sssssV\u0444\u0430\u043a\u0442
p3828
(dp3829
V\u043d\u0435
p3830
(dp3831
V\u0438\u043c\u0435\u0442\u044c
p3832
(dp3833
V\u043f\u0440\u0435\u0446\u0435\u0434\u0435\u043d\u0442
p3834
(dp3835
g7
I332
sssssV\u0440\u0430\u0437\u0437\u0443\u0434\u0435\u0442\u044c\u0441\u044f
p3836
(dp3837
V\u043f\u043b\u0435\u0447\u043e
p3838
(dp3839
V\u0440\u0430\u0437\u043c\u0430\u0445\u0438\u0432\u0430\u0442\u044c\u0441\u044f
p3840
(dp3841
V\u0440\u0443\u043a\u0430
p3842
(dp3843
g7
I261
sssssV\u043d\u0435\u0441\u0442\u043e\u0440
p3844
(dp3845
V\u043d\u0435\u0433\u043e\u0434\u044f\u0439
p3846
(dp3847
V\u0437\u043d\u0430\u0442\u043d\u044b\u0439
p3848
(dp3849
g7
I421
ssssV\u0432\u0430\u0448
p3850
(dp3851
V\u0431\u043b\u0430\u0433\u043e\u0440\u043e\u0434\u0438\u0435
p3852
(dp3853
V\u0433\u043e\u0441\u043f\u043e\u0436\u0430
p3854
(dp3855
V\u0440\u0430\u0437\u043b\u0443\u043a\u0430
p3856
(dp3857
g7
I40
ssssV\u043f\u0430\u043b\u0435\u0446
p3858
(dp3859
V\u043f\u0430\u0445\u043d\u0443\u0442\u044c
p3860
(dp3861
V\u043b\u0430\u0434\u0430\u043d
p3862
(dp3863
g7
I41
sssssV\u0432\u0442\u043e\u0440\u043e\u0439
p3864
(dp3865
V\u0441\u0442\u0430\u0434\u0438\u044f
p3866
(dp3867
V\u043a\u0440\u0430\u0436\u0430
p3868
(dp3869
V\u0433\u0443\u0441\u044c
p3870
(dp3871
g7
I67
sssssV\u043f\u043e\u0435\u0445\u0430\u0442\u044c
p3872
(dp3873
V\u043a\u0440\u0430\u0441\u043e\u0442\u043a\u0430
p3874
(dp3875
V\u043a\u0430\u0442\u0430\u0442\u044c\u0441\u044f
p3876
(dp3877
g7
I588
ssssV\u0443\u0436\u0430\u0441\u043d\u044b\u0439
p3878
(dp3879
V\u0432\u0435\u043a
p3880
(dp3881
V\u0443\u0436\u0430\u0441\u043d\u044b\u0439
p3882
(dp3883
V\u0441\u0435\u0440\u0434\u0446\u0435
p3884
(dp3885
g7
I322
sssssV\u0443\u043b\u0438\u0446\u0430
p3886
(dp3887
V\u043c\u043e\u0439
p3888
(dp3889
V\u0434\u043e\u043c\u0430
p3890
(dp3891
V\u043c\u043e\u0439
p3892
(dp3893
g7
I325
sssssV\u043f\u0443\u0441\u043a\u0430\u0442\u044c
p3894
(dp3895
V\u0434\u0443\u043d\u044c\u043a\u0430
p3896
(dp3897
V\u0432
p3898
(dp3899
V\u0435\u0432\u0440\u043e\u043f\u0430
p3900
(dp3901
g7
I259
sssssV\u0433\u043e\u043c\u0435\u0440
p3902
(dp3903
V\u043c\u0438\u043b\u044c\u0442\u043e\u043d
p3904
(dp3905
V\u0438
p3906
(dp3907
V\u043f\u0430\u043d\u0438\u043a\u043e\u0432\u0441\u043a\u0438\u0439
p3908
(dp3909
g7
I80
sssssV\u0432\u043d\u0438\u043c\u0430\u0442\u044c
p3910
(dp3911
V\u0443\u0436\u0430\u0441
p3912
(dp3913
V\u0432\u043e\u0439\u043d\u0430
p3914
(dp3915
g7
I496
ssssV\u0431\u0440\u0430\u0442
p3916
(dp3917
V\u043f\u043e
p3918
(dp3919
V\u0440\u0430\u0437\u0443\u043c
p3920
(dp3921
g7
I447
ssssV\u0442\u0430\u043b\u0430\u043d\u0442
p3922
(dp3923
V\u043d\u0430\u0434\u043e
p3924
(dp3925
V\u043f\u043e\u043e\u0449\u0440\u044f\u0442\u044c
p3926
(dp3927
g7
I481
ssssV\u0431\u0440\u0438\u0430\u043d
p3928
(dp3929
V\u044d\u0442\u043e
p3930
(dp3931
V\u0433\u043e\u043b\u043e\u0432\u0430
p3932
(dp3933
g7
I465
ssssV\u043a\u0430\u043a
p3934
(dp3935
V\u0436\u0438\u0442\u044c
p3936
(dp3937
V\u043a\u0430\u043a
p3938
(dp3939
V\u0436\u0438\u0432\u043e\u0442\u0438\u043a
p3940
(dp3941
g7
I142
ssssV\u0431\u0435\u043b\u043a\u0430
p3942
(dp3943
V\u0432
p3944
(dp3945
V\u043a\u043e\u043b\u0435\u0441\u043e
p3946
(dp3947
g7
I141
sssssV\u043f\u0435\u0447\u0430\u043b\u044c\u043d\u0438\u043a
p3948
(dp3949
V\u0433\u043e\u0440\u0435
p3950
(dp3951
V\u043d\u0430\u0440\u043e\u0434\u043d\u044b\u0439
p3952
(dp3953
g7
I595
ssssV\u043c\u0438\u0441\u044e\u0441\u044c
p3954
(dp3955
V\u0433\u0434\u0435
p3956
(dp3957
V\u0442\u044b
p3958
(dp3959
g7
I577
ssssV\u0437\u0434\u0440\u0430\u0432\u0441\u0442\u0432\u043e\u0432\u0430\u0442\u044c
p3960
(dp3961
V\u043f\u043b\u0435\u043c\u044f
p3962
(dp3963
V\u043c\u043b\u0430\u0434\u043e\u0439
p3964
(dp3965
V\u043d\u0435\u0437\u043d\u0430\u043a\u043e\u043c\u044b\u0439
p3966
(dp3967
g7
I116
ssssV\u0434\u0435\u0434\u0443\u0448\u043a\u0430
p3968
(dp3969
V\u043a\u0440\u044b\u043b\u043e\u0432
p3970
(dp3971
g7
I400
sssV\u0431\u0430\u0440\u044b\u043d\u044f
p3972
(dp3973
V\u0441\u0443\u0434\u0430\u0440\u044b\u043d\u044f
p3974
(dp3975
V\u0434\u0432\u043e\u0440\u044f\u043d\u043a\u0430
p3976
(dp3977
g7
I115
sssssV\u043f\u0440\u0438\u0435\u043c
p3978
(dp3979
V\u043e\u0441\u0442\u0440\u0430\u043d\u0435\u043d\u0438\u0435
p3980
(dp3981
V\u043e\u0441\u0442\u0440\u0430\u043d\u043d\u0435\u043d\u0438\u0435
p3982
(dp3983
g7
I586
ssssV\u0435\u0449\u0435
p3984
(dp3985
V\u0434\u043e
p3986
(dp3987
V\u0438\u0441\u0442\u043e\u0440\u0438\u0447\u0435\u0441\u043a\u0438\u0439
p3988
(dp3989
V\u043c\u0430\u0442\u0435\u0440\u0438\u0430\u043b\u0438\u0437\u043c
p3990
(dp3991
g7
I108
ssssV\u043d\u0435
p3992
(dp3993
V\u0432\u0435\u0447\u0435\u0440
p3994
(dp3995
g7
I369
ssssV\u0434\u0435\u043c\u044c\u044f\u043d
p3996
(dp3997
V\u0431\u0435\u0434\u043d\u044b\u0439
p3998
(dp3999
V\u043c\u0443\u0436\u0438\u043a
p4000
(dp4001
V\u0432\u0440\u0435\u0434\u043d\u044b\u0439
p4002
(dp4003
g7
I88
sssssV\u043b\u044e\u0431\u0435\u0437\u043d\u044b\u0439
p4004
(dp4005
V\u0431\u0430\u043b\u043e\u0432\u0435\u043d\u044c
p4006
(dp4007
V\u043f\u0440\u0438\u0440\u043e\u0434\u0430
p4008
(dp4009
g7
I513
ssss.